	d_pol	doc_id	company_name	sents	s_pol	category	sno
0	Positive	28509	Siemens AG	Siemens long-term partnership  with 	Positive	New Projects	1
1	Positive	28505	Siemens AG	This order marks the biggest  purchase of rolling stock in the history of the Munich Underground	Positive	Business Performance	1
2	Positive	28494	ABB Ltd	ABB has again been selected as a member of the FTSE4Good Index Series marking the 20th consecutive year of recognition for its sustainability  performance	Positive	General	1
3		28494	ABB Ltd	With an overall score of 41 on a scale  of 0-5 ABB is among the best  performers in the index and a leader among its peers	Positive	Business Performance	1
4		28494	ABB Ltd	FTSE4Good is a global sustainable  investment index series designed to identify companies that demonstrate strong  Environmental Social and Governance ESG practices measured against international standards	Positive	Market Expansion	1
5		28494	ABB Ltd	The series is an important  tool for a wide variety  of market participants when creating or assessing sustainable  investment products	Positive	Business Performance	2
6		28494	ABB Ltd	The renewed  listing in the index confirms that we are on the right  track as we are working on a new set of ambitious  long-term objectives which we will publish later this year said Roland Dubois ABBs Head of Sustainability 	Positive	Business Performance	3
7		28494	ABB Ltd	Last year ABB reached or exceeded  more than half of its sustainability  targets ahead of schedule	Positive	Business Performance	4
8		28494	ABB Ltd	ABBs eco-efficiency portfolio which enables sustainable  smart  cities industries and transport systems to mitigate  climate change and conserve non-renewable resources accounted for 57 percent of total revenues in 2019	Positive	Business Performance	5
9		28494	ABB Ltd	SIX Swiss Ex is a leading global technology company that energizes the transformation of society and industry to achieve a more productive  sustainable  future	Positive	New Projects	1
10		28494	ABB Ltd	With a history of excellence  stretching back more than 130 years ABBs success  is driven by about 110000 talented  employees in over 100 countries	Positive	General	2
11	Positive	28493	ABB Ltd	: ABB Siemens Mitsubishi general electric HITACHI Nidec Toshiba Regal  Beloit WEG Teco Emerson MEIDENSHA Wolong Électrique Rockwell Automation Franklin	Positive	General	3
12		28493	ABB Ltd	Haute Tension  Du Moteur De Moteurs Basse Tension  Les applications du marché mondial Moteur Électrique Industriel sont classées en: De Pétrole Et De Gaz La Production	Negative	Business Risk	1
13		28493	ABB Ltd	Les mouvements essentiels des candidats sont également évalués dans ce rapport  y compris les fusions tardives les acquisitions	Positive	Market Expansion	2
14		28493	ABB Ltd	With COVID-19 Impact  Analysis To Witness Robust  Expansion  Throughout The Forecast Period 2020-2029 : https://apnewscom/b0690c28a7719b5c3ac6b0cc823a0821	Positive	Business Performance	6
15		28493	ABB Ltd	Eye Tracking Devices Market to Garner Bursting Revenues with Top  Growing Companies	Positive	Business Performance	7
16	Positive	28496	ABB Ltd	The State of Washington operates the one of the largest  ferry fleets in world	Positive	Business Risk	2
17		28496	ABB Ltd	Visitors to the Seattle area are well  familiar with the sight of its green and white ferries crisscrossing Puget Sound all day every day almost all of them powered by diesel engines	Positive	Business Risk	3
18		28496	ABB Ltd	Combined they suck  down about 20 million gallons of diesel fuel a year which means they are spewing  enormous  amounts of carbon dioxide and particulate matter in their wake	Negative	Business Performance	8
19		28496	ABB Ltd	Under the leadership of Washington Governor Jay Inslee  one of the few political leaders in the US who takes climate change seriously  the management of the state ferry system has made a serious commitment  to reducing pollution from its ferries by converting some existing vessels to electric power and calling for any new ferries to be primarily battery electric vessels	Positive	Business Risk	4
20		28496	ABB Ltd	Even if youre not an environmentalist this is a good  idea for the taxpayer because we expect it to pay for itself relatively quickly based on the price of fuel	Positive	General	4
21		28496	ABB Ltd	Now Vigor Shipyards which builds vessels in the Pacific Northwest has been awarded  a contract to build new battery-powered Olympic class ferries for the state of Washington	Positive	New Projects	2
22		28496	ABB Ltd	This landmark project supports Washington States goal for 2050 to reduce  emissions by 575 per cent below the emissions level in 2019 utilising a hybrid and electric propulsion solution that is space-efficient easy to install and flexible in operation Jay Hebert vice president of marine fabrication  at Vigor tells Cruise and Ferry magazine	Negative	New Projects	3
23		28496	ABB Ltd	Vigor is delighted  to partner with ABB in this remarkable work prompted by the commitment  of Washington Governor Jay Inslee the state legislature and Washington State Ferries to replace aging ferries with clean  technology in alignment with the states commitment  to environmental stewardship he added	Positive	New Projects	4
24		28496	ABB Ltd	By 2040 the ferry service expects to replace 13 of its current ships with vessels that operate primarily on electricity they will have diesel engines as a backup power source and convert 6 more ferries to become plug-in hybrid vessels saving more than 10 million gallons of diesel fuel from being burned  each year	Negative	Market Expansion	3
25		28496	ABB Ltd	Moving towards a zero emission future relies on technologies that meet the environmental and cost needs of today and offer flexibility  to integrate future energy sources in the years ahead says Juha Koskela managing director of ABB Marine & Ports	Positive	New Projects	5
26		28496	ABB Ltd	ABB is delighted  to support this milestone project demonstrating the way that electric digital and connected solutions can deliver shippings	Positive	Market Expansion	4
27		28496	ABB Ltd	future Seattle joins several other ferry services in Denmark Norway Iceland and elsewhere that are transitioning from diesel ferries to electric or hybrid electric ferries in order to lower costs and reduce  emissions from the vessels they operate	Positive	New Projects	6
28		28496	ABB Ltd	Saving the planet is nice  but doing it in a way that saves companies and taxpayers money is even better 	Positive	General	5
29	Positive	28497	ABB Ltd	The deal reflects the commercial importance placed by the global energy sector on sustainable  energy including facilities mobility solutions smart  cities industry and information technology	Positive	Business Risk	5
30		28497	ABB Ltd	The two companies are now looking to grow and improve  on these capabilities according to Thursdays statement	Positive	Market Expansion	5
31		28497	ABB Ltd	Hitachi ABB Power Grids will expand Hitachis energy solutions business globally as a core part of the companys Social Innovation  Business	Positive	Market Expansion	6
32		28497	ABB Ltd	The new entitys headquarters will remain in Zurich Switzerland with the current management team ensuring business continuity 	Positive	General	6
33		28497	ABB Ltd	Nishino said that Hitachis pioneering digital technologies with world-class energy grid solutions will help  the company play an important  role in global transformation	Positive	General	7
34		28497	ABB Ltd	It will also look to reduce  carbon emissions from energy systems to provide  a sustainable  energy future alongside smart  solutions for the most dynamic  network	Positive	General	8
35		28497	ABB Ltd	Nishino added It will also contribute  to achieving the United Nations Sustainable  Development Goal 7 which is to ensure  universal access to affordable  reliable and clean energy	Positive	Business Performance	9
36	Positive	28495	ABB Ltd	We would like  to offer advanced  energy solutions to the world and lead innovations with our digital technologies CEO Toshiaki Higashihara said in an online press conference	Positive	General	9
37		28495	ABB Ltd	The Japanese information and infrastructure giant bought an 801 percent stake in ABBs power grid business for around 740 billion yen $69 billion in Hitachis largest-ever corporate acquisition and set up Hitachi ABB Power Girds Ltd in Zurich Switzerland		New Projects	7
38		28495	ABB Ltd	We have obtained a great  asset to make Hitachi fly high as a significant  global company Higashihara said	Positive	Market Expansion	7
39	Positive	28498	Indian Oil Corp Ltd	Chennai Petroleum Corporation Ltd CPCL has recommended  to the Board of Indian Oil Corporation Ltd IOCL its holding company investment approval  for the construction of the 9 million metric tonnes per annum MMTPA refinery at its Cauvery Basin Refinery CBR in Nagapattinam	Positive	New Projects	1
40		28498	Indian Oil Corp Ltd	The project will help  increase  the refining capacity in Tamil Nadu and ensure  uninterrupted supplies to the southern parts of the State and neighbouring States	Positive	Market Expansion	1
41		28498	Indian Oil Corp Ltd	It will also aid  in economic development of these areas	Positive	New Projects	2
42		28498	Indian Oil Corp Ltd	CPCL has also notified the National Stock Exchange of its boards recommendation  for the project that would be a joint venture between IOCL and CPCL where the two companies would hold 25% of shares each	Positive	Business Performance	1
43		28498	Indian Oil Corp Ltd	Now the investment proposal awaits the approval  of the board of the IOCL	Positive	New Projects	3
44		28498	Indian Oil Corp Ltd	The first-stage approval  for the project was received from CPCL/IOCL Boards in September 2017	Positive	Business Performance	2
45		28498	Indian Oil Corp Ltd	The bulk of the refined  products will be despatched through a cross-country pipeline to Tiruchi and the balance through coastal evacuation using nearby port facilities	Positive	Market Expansion	2
46		28498	Indian Oil Corp Ltd	MMPTA which was later enhanced  to 1 MMPTA	Positive	Business Performance	3
47	Positive	28500	Reliance Industries	Reliance Industries Ltd RIL plans to increase  its network of aviation fuel stations by 50 per cent as it looks to capture greater market share in the business currently controlled by public sector oil retailing firms	Positive	Business Performance	1
48		28500	Reliance Industries	In its latest annual report RIL said the double-digit growth  observed over 52 consecutive months might have been stalled due to the COVID-19 pandemic but India continues to be one of the fastest  growing aviation markets in the world for the fifth consecutive year	Positive	Business Performance	2
49		28500	Reliance Industries	RIL which operates the worlds largest  single location oil refining complex  plans to capture this opportunity through increased  presence at airports to refuel airplanes	Positive	New Projects	1
50		28500	Reliance Industries	Following the COVID-19 pandemic while travel restrictions were being imposed elsewhere India was largely unaffected  till the end of March 2020 before the sharp escalation in travel bans globally and lockdowns impacted  Indias aviation sector too	Negative	General	1
51		28500	Reliance Industries	On account of its network strength  cost competitiveness industry leading technology and best-in-class service standards RIL improved  its volume share in the domestic market according to the annual report	Positive	Business Performance	3
52		28500	Reliance Industries	RIL is looking to increase  its network to 45 locations as against 30 at the end of FY 2019-20 and is well geared to benefit  with the growth  in the Indian aviation	Positive	Business Performance	4
53		28500	Reliance Industries	the remaining 44RIL is the largest  private aviation fuel retailer with 31 stations according to the latest data from the oil ministry	Positive	Business Performance	5
54	Positive	28501	Reliance Industries	Billionaire Mukesh Ambanis Reliance Industries Ltd RIL plans to increase  its network of aviation fuel stations by 50 per cent as it looks to capture greater market share in the business currently controlled by public sector oil retailing firms	Positive	Business Performance	6
55		28501	Reliance Industries	In its latest annual report RIL said the double-digit growth  observed over 52 consecutive months might have been stalled due to the COVID-19 pandemic but India continues to be one of the fastest  growing aviation markets in the world for the fifth consecutive year	Positive	Business Performance	7
56		28501	Reliance Industries	RIL which operates the worlds largest  single location oil refining complex  plans to capture this opportunity through increased  presence at airports to refuel airplanes	Positive	New Projects	2
57		28501	Reliance Industries	Following the COVID-19 pandemic while travel restrictions were being imposed elsewhere India was largely unaffected  till the end of March 2020 before the sharp escalation in travel bans globally and lockdowns impacted  Indias aviation sector too	Negative	General	2
58		28501	Reliance Industries	On account of its network strength  cost competitiveness industry leading technology and best-in-class service standards RIL improved  its volume share in the domestic market according to the annual report	Positive	Business Performance	8
59		28501	Reliance Industries	RIL is looking to increase  its network to 45 locations as against 30 at the end of FY 2019-20 and is well geared to benefit  with the growth  in the Indian aviation market it said	Positive	Business Performance	9
60		28501	Reliance Industries	RIL is the largest  private aviation fuel retailer with 31 stations according to the latest data from the oil ministry	Positive	Business Performance	10
61		28501	Reliance Industries	Russias Rosneft-backed Nayara Energy is the biggest  private auto fuel retailer with 5720 petrol pumps	Positive	New Projects	3
62		28501	Reliance Industries	RIL said it registered 98 per cent growth  in retail diesel sales and 147 per cent in retail petrol volume as compared with 15 per cent and 63 per cent for industry respectively	Positive	Business Performance	11
63		28501	Reliance Industries	During financial year 2019-20 RIL registered over 10 per cent growth  in average outlet sales volume	Positive	Business Performance	12
64		28501	Reliance Industries	On bulk diesel RIL said it registered a volume growth  of 108 per cent increasing market share to 88 per cent despite expected demand contraction and margin pressure	Positive	Business Performance	13
65		28501	Reliance Industries	Direct sales volume would be driven by continued volume growth  from railways and sourcing higher volume shares in State Transport Units STUs it said	Positive	Business Performance	14
66	Negative	28504	Siemens AG	Ralf Thomas told Saturdays edition of the newspaper that the companys financial third quarter which runs April to June will be a big challenge for us as for most other market participants as well due to the coronavirus crisis  	Negative	Business Performance	2
67		28504	Siemens AG	However it will not be a bottomless fall  he said adding that the business volume of short-cycle activities had likely contracted by between 10 per cent and 20 per cent in the period	Positive	Business Performance	3
68		28504	Siemens AG	Thomas had said in May he expected a 5 per cent drop in revenue in the financial year ending in September after guiding for moderate sales growth  before the virus outbreak 	Negative	Business Performance	4
69		28504	Siemens AG	He said activity in 2021 would not reach 2019s level across all businesses or regions but said Siemens had a competitive advantage  over rivals in some areas without offering details	Positive	Market Expansion	1
70	Positive	28507	Siemens AG	In its first credit rating Siemens Energy AG which will soon be operating as an independent entity has earned a solid  investment grade rating from the S&P Global rating agency S&P	Positive	Business Performance	5
71		28507	Siemens AG	The company received a long-term issuer rating of BBB with a stable  outlook	Positive	Business Performance	6
72		28507	Siemens AG	The raters particularly praised the companys broad  base in the energy sector its low level of debt and its extensive  liquidity	Positive	Business Performance	7
73		28507	Siemens AG	In its first credit rating Siemens Energy AG which will soon be operating as an independent entity has earned a solid  investment grade rating from the S&P Global rating agency S&P	Positive	Business Performance	8
74		28507	Siemens AG	The company received a long-term issuer rating of BBB with a stable  outlook	Positive	Business Performance	9
75		28507	Siemens AG	The raters particularly praised the companys broad  base in the energy sector its low level of debt and its extensive  liquidity	Positive	Business Performance	10
76	Positive	28511	Siemens AG	The signing of a cooperation  agreement between GREEN Solar Herzogenrath GmbH and Siemens Energy has now marked an important  milestone in achieving this goal	Positive	New Projects	2
77		28511	Siemens AG	The signing of a cooperation  agreement between GREEN Solar Herzogenrath GmbH and Siemens Energy has now marked an important  milestone in achieving this goal	Positive	New Projects	3
78	Positive	28510	Siemens AG	11:41 AM Global project heavy lift carrier AAL has recently delivered two Siemens S-Gen generators weighing close to 350 mt each for two new clean  energy gas-fired power plants in Europe and Maysan Iraq	Positive	New Projects	4
79		28510	Siemens AG	The estimated construction cost of each plant is over USD340 million and both feature a potential  power output of 840 MW	Positive	New Projects	5
80		28510	Siemens AG	 the Hamburg-based office responsible for booking the cargo  commented: The cargo was carried on a popular  trade route eastbound from the US to Europe Middle East and onwards to Asia	Positive	New Projects	6
81		28510	Siemens AG	This frequency of large tonnage into the region is offering the US multipurpose market much needed support during this challenging  time and providing shippers trading in the region with flexibility  and economies of scale 	Positive	Business Performance	11
82	Positive	28512	Siemens AG	With years of expertise  in the building industry Siemens smart  building solutions supports companies to adapt to the new normal and to build the foundation for resilient  future workplaces	Positive	General	1
83		28512	Siemens AG	This includes IoT solutions which support adherence to social distancing and contact tracing guidelines body temperature detection integrated  with access control  indoor air quality optimization and secured remote monitoring of a buildings systems	Positive	Market Expansion	2
84		28512	Siemens AG	Robert Demann Head of Smart  Infrastructure Siemens Limited said The development of these solutions for the new normal supports our creating environments that care approach	Positive	General	2
85		28512	Siemens AG	For organizations people are the biggest  asset and they need workspaces that are safe  and secure  now more than ever	Positive	General	3
86		28512	Siemens AG	Even in a post-COVID-19 era organizations of all sizes and across industry would be required to follow health and safety regulations in addition to keeping their premises secure The solutions include Comfy  a workplace app that allows building operators and owners to engage with occupants and keep them informed  safe  productive and helps  in enabling social distancing through configurable desk booking	Positive	General	4
87		28512	Siemens AG	The app also provides  timely  updates related to COVID-19 with configuration of content for localized needs and mandates	Positive	New Projects	7
88		28512	Siemens AG	The IoT sensor-based space utilization solution allows to better  plan the available space inside buildings allowing for better  return on real estate investment	Positive	Market Expansion	3
89		28512	Siemens AG	The HVAC and building management systems including room automation allow for improved  indoor environment quality for occupant wellbeing; Siveillance Thermal Shield measures the body temperature of a person seeking to access a building and integrates the results into the video and access systems of the company which can be seamlessly integrated  into the workflow  of the corporate security solutions	Positive	Market Expansion	4
90		28512	Siemens AG	The Remote Connectivity and Data Driven Services provide  secure  connectivity and support systems in managing critical  infrastructures to ensure  business continuity 	Positive	Business Performance	12
91		28512	Siemens AG	With a rapid  initial diagnosis enabling targeted fault  clearance the remote technical support ensures system efficiency  & uptime even in times of restricted  travel	Negative	Business Risk	1
92	Positive	28471	ABB Ltd	An extension of the best-selling Terra range the new 180kW Terra 184 is the most compact  high-power charger with the highest power density on the market	Positive	New Projects	8
93		28471	ABB Ltd	It is therefore vital  that these rapidly expanding urban hubs take proactive  steps to reduce  their carbon emissions and e-mobility is a key factor in achieving this	Positive	General	10
94		28471	ABB Ltd	But for e-mobility to be viable in high density cities where time is short and space is at a premium  solutions must be developed which address these challenges	Positive	New Projects	9
95		28471	ABB Ltd	The Terra 184 charger the latest member of ABBs best-selling Terra family of chargers is fast  compact  robust  and provides  the ability to charge up to three vehicles simultaneously3 maximizing convenience  for drivers and revenue for the charging operator	Positive	New Projects	10
96		28471	ABB Ltd	Indeed its innovative  design means there is no need for separately installed power cabinets offering the perfect  fast  and compact  solution for cities with limited space Over the last decade ABB has laid the foundation for the future of sustainable  transportation	Positive	New Projects	11
97		28471	ABB Ltd	It is highly customizable  with features including customized credit card payment terminal screen and cables which have also been designed at 8 meters for maximum charging convenience 	Positive	General	11
98		28471	ABB Ltd	For added flexibility  operators of other Terra models such as the Terra 94 or 124 can in the future chose to upgrade their charging solution to the Terra 184 with the addition of extra power modules	Positive	Market Expansion	8
99		28471	ABB Ltd	It offers a safe  smart and sustainable  charging solution which supports ABB Electrifications Mission to Zero a vision for a zero-emission reality for all	Positive	New Projects	12
100		28471	ABB Ltd	ABB has unrivalled expertise  in developing sustainable  transport solutions	Positive	New Projects	13
101		28471	ABB Ltd	Since entering the EV-charging market a decade ago ABB has sold more than 14000 ABB DC fast  chargers across more than 80 countries	Positive	Business Performance	10
102		28471	ABB Ltd	ABB recently received the Global E-mobility Leader 2019 award  for its role in supporting  the international adoption of sustainable  transport solutions	Positive	New Projects	14
103		28471	ABB Ltd	SIX Swiss Ex is a global technology company that energizes the transformation of society and industry to achieve a more productive  sustainable  future	Positive	New Projects	15
104		28471	ABB Ltd	With a history of excellence  stretching back more than 130 years ABBs success  is driven by about 110000 talented  employees in over 100 countries	Positive	General	12
105	Positive	28473	Acer Inc	Considering the price-to-performance ratio of the 2019 model and how it arrived slightly earlier to the market it was only a matter of time before the company refreshed  it	Positive	Business Performance	1
106		28473	Acer Inc	The new version now comes with Intels latest 10th-generation Core i7-10750H processor a 6-core part which can boost  up to 500GHz	Positive	Market Expansion	1
107		28473	Acer Inc	With that 1080p 144Hz display youll effortlessly be able  to hit high framerates with this kind of hardware even in the most demanding of titles and the 2020 Acer Predator Helios 300 will keep its thermals in check while doing so too	Positive	General	1
108		28473	Acer Inc	Where the 2019 model was offered with only 256GB of storage Acer has upped it up to 512GB of NVMe storage and has also provided  two extra slots with which you upgrade your existing storage	Positive	Market Expansion	2
109		28473	Acer Inc	For $1199 this is one of the most compelling  gaming laptops you can get right  now considering the hardware youre getting in return	Positive	Business Performance	2
110	Positive	28477	Mahindra & Mahindra Limited	Mahindra Group on Thursday announced the appointment of Amit Raje as Executive Vice President for partnerships and alliance to help  it scale  up its high-potential businesses and deliver technology to strengthen  its market position	Positive	General	1
111		28477	Mahindra & Mahindra Limited	Partnerships and alliances will play a pivotal role in implementing our growth  strategy and we are delighted  to have Amit onboard Shah said in the release	Positive	General	2
112		28477	Mahindra & Mahindra Limited	Amits expertise  and vast knowledge will help  enhance  the value for all our stakeholders	Positive	General	3
113		28477	Mahindra & Mahindra Limited	He is bringing not just his deep domain expertise  but also a strong  value and purpose focus that blends well  with our Groups Rise philosophy he added	Positive	Market Expansion	1
114		28477	Mahindra & Mahindra Limited	Besides he will drive growth  and profitability by forging partnerships and alliances to help  high-potential businesses scale  up and deliver technology that strengthens the Groups market position the release said	Positive	Business Performance	1
115		28477	Mahindra & Mahindra Limited	He will also enhance  investor engagement and work closely with our businesses to create value for the shareholders it added	Positive	General	4
116		28477	Mahindra & Mahindra Limited	It is an honour and a matter of pride  to be joining the executive team of the Mahindra Group	Positive	General	5
117		28477	Mahindra & Mahindra Limited	I am thrilled  to be joining the group at its inflection point of growth  and transformation	Positive	Business Performance	2
118		28477	Mahindra & Mahindra Limited	and I am committed  to building and delivering on our strategy Raje said	Positive	General	6
119		28477	Mahindra & Mahindra Limited	* Thank  you for subscribing to our newsletter	Positive	General	7
120	Positive	28474	Bharat Petroleum Corporation Ltd	Bharat Petroleums Corporate Research & Development Centre CRDC has bagged  as many as 62 patents since its inception 19 years ago and is awaiting 68 more	Positive	Business Performance	1
121		28474	Bharat Petroleum Corporation Ltd	CRDC recognised by the Department of Scientific & Industrial Research has been set up with a mission to transform  ideas into innovations	Positive	New Projects	1
122		28474	Bharat Petroleum Corporation Ltd	Some of the notable patented innovations are BPMarrk which is an intelligent  tool for advanced  assaying of crude oils which characterises and evaluates crudes at a fraction of the time taken by traditional assaying methods that take a month at least	Positive	Business Performance	2
123		28474	Bharat Petroleum Corporation Ltd	BPMarrk drastically  slashes the time required to generate results from three to four weeks to merely one hour	Negative	Business Performance	3
124		28474	Bharat Petroleum Corporation Ltd	Another patented innovation  is the K-Model a software for quick and accurate prediction of crude oils blend compatibility and blend optimisation that are generated within minutes compared to a traditional process that takes several weeks	Positive	Business Performance	4
125		28474	Bharat Petroleum Corporation Ltd	Another innovation  called Bharat Neutrachem is a patented to neutralise amine system to prevent  corrosion in refinery columns overhead circuits	Positive	General	1
126		28474	Bharat Petroleum Corporation Ltd	Then there are CO Promoter  or COP-CAT which is a superior additive promoting complete combustion in FCCU regenerator dense catalyst bed and is deployed in Mumbai Refinery	Positive	New Projects	2
127		28474	Bharat Petroleum Corporation Ltd	The patented Drag-Reducing Additive enhances  the flow of finished products in cross-country pipelines	Positive	Market Expansion	1
128		28474	Bharat Petroleum Corporation Ltd	is a novel  4-cut divided wall column configuration that improve  separation of naphtha compared to conventional distillation columns	Positive	Market Expansion	2
129		28474	Bharat Petroleum Corporation Ltd	CRDC is based in New Delhi to nurture fertile ideas and grooms them into mature  innovations	Positive	General	2
130		28474	Bharat Petroleum Corporation Ltd	It provides  vital  support to the strategic business units of BPCL refineries and carries out frontline research in an slew of areas from advanced  technology development for refining and petrochemical processes to alternative energy	Positive	Market Expansion	3
131		28474	Bharat Petroleum Corporation Ltd	It also provides  extensive  R&D support in alternative energy	Positive	New Projects	3
132		28474	Bharat Petroleum Corporation Ltd	Other research initiatives include waste heat utilisation swappable batteries for electric vehicles solar power and emerging  energy solutions	Positive	Business Risk	1
133	Positive	28475	Jindal Steel & Power Limited	Indias Jindal Steel & Power Company JSPL is set to transfer the groups entire stake in its Oman asset Jindal Shadeed Iron and Steel to another promoter  group firm Templar Investments for an enterprise value of over $1 billion reported the Business Standard	Positive	Business Performance	1
134		28475	Jindal Steel & Power Limited	first and largest  SMS and also the third largest  steel plant in the Middle East & Gulf Region	Positive	New Projects	1
135		28475	Jindal Steel & Power Limited	The facility at Sohar Oman is powered by an integrated  and highly automated steel plant with 15 MTPA HBI 2 MTPA SMS and 14 MTPA Rebar Mill	Positive	New Projects	2
136		28475	Jindal Steel & Power Limited	Mauritius-based Templar Investments is part of the promoter  group of JSPL	Positive	Business Risk	1
137		28475	Jindal Steel & Power Limited	The divestment  is in line with JSPLs vision and commitment  to continuously bring down its debt and deleverage its balance sheet said the report citing a senior official	Negative	Business Performance	2
138		28475	Jindal Steel & Power Limited	This sale is in-line with our vision to reduce  debt and create a much healthier  balance sheet for our investors and stakeholders	Positive	Business Performance	3
139		28475	Jindal Steel & Power Limited	We firmly believe in the India growth  story remarked VR Sharma the managing director of JSPL	Positive	Business Performance	4
140		28475	Jindal Steel & Power Limited	The transaction is subject to approval  from shareholders of JSPL and lenders of JSIS Oman among others	Positive	Business Risk	2
141		28475	Jindal Steel & Power Limited	On the technical front JSPLs RSI relative strength  index stood at 65188	Positive	Business Performance	5
142	Negative	28476	JSW Steel Ltd	With the acquisition of Bhushan Power & Steel hanging fire and the expansion  of Dolvi Works under Covid cloud  JSW Steels move up the league table of Indian steel producers is now delayed 	Negative	Business Performance	1
143		28476	JSW Steel Ltd	With an installed capacity of 18 million tonnes JSW Steel is the third largest  steelmaker	Positive	Market Expansion	1
144		28476	JSW Steel Ltd	JSW Steels growth  - through organic and inorganic routes - would have restored  its position as the largest  steelmaker in India this year but the plans are delayed  for different reasons	Positive	Business Performance	2
145		28476	JSW Steel Ltd	The acquisition of BPSL having a capacity of three million tonnes is caught  in a legal web and will now be heard in Supreme Court	Negative	Business Risk	1
146		28476	JSW Steel Ltd	The five-million-tonne expansion  at Dolvi on the other hand - supposed to be completed in June - had to be postponed due to Covid	Positive	Business Performance	3
147		28476	JSW Steel Ltd	Weak  demand oversupply price drop to hit steel sector in Q2 FY21:	Negative	Business Performance	4
148		28476	JSW Steel Ltd	However the expansion  project was hampered  as a number of workers employed by contractors began to head home	Negative	General	1
149		28476	JSW Steel Ltd	The expansion  of crude steel capacity at Dolvi Works from 5 to 10 million tonnes along with the captive power plant and coke oven plant is therefore likely to get delayed  into the second half of FY2021	Negative	Business Performance	5
150		28476	JSW Steel Ltd	Icra senior vice president Jayanta Roy said JSW Steel which was poised  to become the largest  steel player in India at this time in terms of installed capacity is currently the third largest  if one considers Tata Steels total steel capacity including those of its domestic subsidiaries	Positive	Market Expansion	2
151		28476	JSW Steel Ltd	JSWs large  expansion  project at Dolvi suffered  twice - first because of floods in FY2020 and now because of Covid -19 delaying  project implementation he added	Negative	New Projects	1
152		28476	JSW Steel Ltd	Before the auction of steel assets under the Insolvency  and Bankruptcy  Code IBC Tata Steel was in the third position	Negative	Business Performance	6
153		28476	JSW Steel Ltd	In terms of production Tata Steel is the largest  steel company in India pointed out company sources	Positive	Business Performance	7
154		28476	JSW Steel Ltd	However the scenario could change once JSWs growth  plans take off	Positive	Business Performance	8
155	Positive	28478	Phoenix Contact	With the help  of the newly developed 5G Router industrial applications such as machines controls and other equipment can now be connected to a private 5G network and thus be orchestrated in their resource usage priority and behavior	Positive	Market Expansion	1
156		28478	Phoenix Contact	They therefore offer a decisive advantage  compared to previous mobile radio solutions which can only use all - mostly license-free - radio bands with a best  effort principle and which have to accept performance losses  in equal measure when the radio spectrum is heavily occupied	Positive	General	1
157		28478	Phoenix Contact	Ericsson supporting  the product development as a network supplier and a leading force of the 5G technology development	Positive	New Projects	1
158		28478	Phoenix Contact	By starting to interact at an early stage the three companies have been able  to rapidly develop a solution that provides  industrial-grade performance over private 5G networks	Positive	Market Expansion	2
159		28478	Phoenix Contact	The collaboration between Quectel Phoenix Contact and Ericsson has seen extensive  interoperability testing at the Ericsson lab to ensure  the reliable  commercial performance of the 5G router	Positive	New Projects	2
160		28478	Phoenix Contact	The experience made is highly important  for Ericsson following the strategic approach offering 5G solutions jointly with mobile network operators towards the industry	Positive	New Projects	3
161		28478	Phoenix Contact	In addition all three companies cooperated closely to enable  Industry 40 applications with this 5G standalone private network	Positive	Market Expansion	3
162	Positive	28479	Reliance Industries	Billionaire Mukesh Ambanis Reliance Industries Ltd RIL plans to increase  its network of aviation fuel stations by 50 per cent as it looks to capture greater market share in the business currently controlled by public sector oil retailing firms	Positive	Business Performance	15
163		28479	Reliance Industries	In its latest annual report RIL said the double-digit growth  observed over 52 consecutive months might have been stalled due to the COVID-19 pandemic but India continues to be one of the fastest  growing aviation markets in the world for the fifth consecutive year	Positive	Business Performance	16
164		28479	Reliance Industries	RIL which operates the worlds largest  single location oil refining complex  plans to capture this opportunity through increased  presence at airports to refuel airplanes	Positive	New Projects	4
165		28479	Reliance Industries	Following the COVID-19 pandemic while travel restrictions were being imposed elsewhere India was largely unaffected  till the end of March 2020 before the sharp escalation in travel bans globally and lockdowns impacted  Indias aviation sector too	Negative	General	3
166		28479	Reliance Industries	On account of its network strength  cost competitiveness industry leading technology and best-in-class service standards RIL improved  its volume share in the domestic market according to the annual report	Positive	Business Performance	17
167		28479	Reliance Industries	RIL is looking to increase  its network to 45 locations as against 30 at the end of FY 2019-20 and is well geared to benefit  with the growth  in the Indian aviation market it said	Positive	Business Performance	18
168		28479	Reliance Industries	RIL is the largest  private aviation fuel retailer with 31 stations according to the latest data from the oil ministry	Positive	Business Performance	19
169		28479	Reliance Industries	Russias Rosneft-backed Nayara Energy is the biggest  private auto fuel retailer with 5720 petrol pumps	Positive	New Projects	5
170		28479	Reliance Industries	RIL said it registered 98 per cent growth  in retail diesel sales and 147 per cent in retail petrol volume as compared with 15 per cent and 63 per cent for industry respectively	Positive	Business Performance	20
171		28479	Reliance Industries	During financial year 2019-20 RIL registered over 10 per cent growth  in average outlet sales volume	Positive	Business Performance	21
172		28479	Reliance Industries	On bulk diesel RIL said it registered a volume growth  of 108 per cent increasing market share to 88 per cent despite expected demand contraction and margin pressure	Positive	Business Performance	22
173		28479	Reliance Industries	Direct sales volume would be driven by continued volume growth  from railways and sourcing higher volume shares in State Transport Units STUs it said	Positive	Business Performance	23
174	Positive	28463	Reliance Industries	After raising billions of dollars from the likes  of Facebook and Intel for its digital business billionaire Mukesh Ambanis Reliance Industries has launched JioMeet video conferencing app with unlimited free  calling that is being seen as rate war on rival  Zoom	Positive	General	4
175		28463	Reliance Industries	According to the company website JioMeet supports HD audio and video call quality with up to 100 participants and offers features like  screen sharing meeting schedule feature and more	Positive	General	5
176		28463	Reliance Industries	But unlike Zoom it does not impose  a 40-minute time limit	Positive	Business Performance	24
177		28463	Reliance Industries	Based on USD 15 per month charge for meetings of more than 40 minutes on Zoom USD 180 on annual basis JioMeet is providing the same functionality and more free  of cost translating into Rs 13500 savings  for a host per year company sources said	Positive	Business Performance	25
178		28463	Reliance Industries	According to app features listed on Google Play Store JioMeet offers easy  sign up with either mobile number or e-mail ID and allows creation of instant meeting	Positive	New Projects	6
179		28463	Reliance Industries	Each meeting is password protected and the host can enable  Waiting Room to ensure  no participant joins without permission	Positive	General	6
180		28463	Reliance Industries	Advertisement Other features include Safe  Driving Mode while driving multi-device login support for up to five devices and seamless switching from one device to other while on call	Positive	General	7
181		28463	Reliance Industries	The app which has already seen more than 5 lakh downloads on the Google Play Store and iOS comes amid the government imposing  a ban on 59 popular  Chinese apps including TikTok on grounds that they threatened national security and data privacy	Negative	Business Risk	1
182		28463	Reliance Industries	Company sources said no restriction  on time limit on JioMeet means teachers will not be required to cut short their classes as they are forced  to do on Zoom	Positive	Business Risk	2
183		28463	Reliance Industries	Also JioMeet has two advanced  meeting settings over and above Zoom options	Positive	New Projects	7
184		28463	Reliance Industries	If enabled only users from the hosts organsation can join that meeting eliminating potential  snoops from other IDs	Positive	General	8
185		28463	Reliance Industries	JioMeet allows nine active  participants on a single mobile screen	Positive	General	9
186	Negative	28464	Siemens AG	Ralf Thomas told Saturdays edition of the newspaper that the companys financial third quarter which runs April to June will be a big challenge for us as for most other market participants as well due to the coronavirus crisis  	Negative	Business Performance	13
187		28464	Siemens AG	However it will not be a bottomless fall  he said adding that the business volume of short-cycle activities had likely contracted by between 10% and 20% in the period	Positive	Business Performance	14
188		28464	Siemens AG	Thomas had said in May he expected a 5% drop in revenue in the financial year ending in September after guiding for moderate sales growth  before the virus outbreak 	Negative	Business Performance	15
189		28464	Siemens AG	He said activity in 2021 would not reach 2019s level across all businesses or regions but said Siemens had a competitive advantage  over rivals in some areas without offering details	Positive	Market Expansion	5
190	Negative	28465	Siemens AG	Ralf Thomas told Saturdays edition of the newspaper that the companys financial third quarter which runs April to June will be a big challenge for us as for most other market participants as well due to the coronavirus crisis  	Negative	Business Performance	16
191		28465	Siemens AG	However it will not be a bottomless fall  he said adding that the business volume of short-cycle activities had likely contracted by between 10% and 20% in the period	Positive	Business Performance	17
192		28465	Siemens AG	Thomas had said in May he expected a 5% drop in revenue in the financial year ending in September after guiding for moderate sales growth  before the virus outbreak 	Negative	Business Performance	18
193		28465	Siemens AG	He said activity in 2021 would not reach 2019s level across all businesses or regions but said Siemens had a competitive advantage  over rivals in some areas without offering details	Positive	Market Expansion	6
194	Negative	28466	Tata Steel	Tata Steel on Friday said that it has reached an agreement with Dutch labour unions to resolve differences with the employees in the region which had resulted in a strike  in IJmuiden	Negative	Business Risk	1
195		28466	Tata Steel	Henrik Adam CEO of Tata Steel in Europe said: This agreement should give our employees the confidence  that Tata Steel is fully committed  to building a sustainable  future for IJmuiden	Positive	Business Performance	1
196		28466	Tata Steel	We share an ambition with our employee representatives to restore IJmuidens position as the most competitive  steel plant in Europe Tata Steels	Positive	New Projects	1
197		28466	Tata Steel	Dutch operations were facing protests  and demonstrations for over 25 days	Negative	Business Risk	2
198		28466	Tata Steel	The unions said that the company planned to scrap  1000 of the 9000 jobs at the site	Negative	Business Performance	2
199		28466	Tata Steel	The demands of the workers included agreements about job security a robust  strategic plan ending the integration with Tata Steel UK and non-transfer of profits to Tata Steel UK	Positive	New Projects	2
200		28466	Tata Steel	Tata Steels Dutch management team meanwhile will discuss the transformation programme and the resulting job losses  with the local works council following a consultation process	Negative	Business Risk	3
201	Negative	28467	Tata Steel	Workers at Tata Steels main plant in the Netherlands ended a three-week strike  on Friday after the company said there would be no compulsory layoffs under a planned reorganisation of its Dutch operations	Negative	Business Risk	4
202		28467	Tata Steel	We are pleased  to announce we have reached an agreement with all unions involved Tata Steels Dutch division said in a statement	Positive	Business Performance	3
203		28467	Tata Steel	The transformation programme will not lead to forced  redundancies at Tata Steel Netherlands	Positive	Business Performance	4
204		28467	Tata Steel	Workers at the IJmuiden plant went on strike  on June 10 after unions said the company had outlined plans to scrap  around 1000 of the 9000 jobs at the site as part of a reorganisation of its European operations	Negative	Business Risk	5
205		28467	Tata Steel	Tata Steel Europe has said IJmuiden needs to become more profitable as the steel sector grappled with the effects of overcapacity cheap  Chinese imports and US trade tariffs even before the global coronavirus recession  hit	Negative	Business Performance	5
206		28467	Tata Steel	Under the agreement reached with unions Tata also promised  to invest in innovation  and cleaner  production technologies and not to quickly divest any part of its Dutch activities or to outsource work done in the Netherlands	Positive	Business Performance	6
207	Negative	28487	Tata Steel	Tata Steel on Friday said that it has reached an agreement with Dutch labour unions to resolve differences with the employees in the region which had resulted in a strike  in IJmuiden	Negative	Business Risk	6
208		28487	Tata Steel	Henrik Adam CEO of Tata Steel in Europe said: This agreement should give our employees the confidence  that Tata Steel is fully committed  to building a sustainable  future for IJmuiden	Positive	Business Performance	7
209		28487	Tata Steel	We share an ambition with our employee representatives to restore IJmuidens position as the most competitive  steel plant in Europe Tata Steels	Positive	New Projects	3
210		28487	Tata Steel	Dutch operations were facing protests  and demonstrations for over 25 days	Negative	Business Risk	7
211		28487	Tata Steel	The unions said that the company planned to scrap  1000 of the 9000 jobs at the site	Negative	Business Performance	8
212		28487	Tata Steel	The demands of the workers included agreements about job security a robust  strategic plan ending the integration with Tata Steel UK and non-transfer of profits to Tata Steel UK	Positive	New Projects	4
213		28487	Tata Steel	Tata Steels Dutch management team meanwhile will discuss the transformation programme and the resulting job losses  with the local works council following a consultation process	Negative	Business Risk	8
214	Positive	28480	Reliance Industries	Billionaire Mukesh Ambanis Reliance Industries Ltd RIL plans to increase  its network of aviation fuel stations by 50 per cent as it looks to capture greater market share in the business currently controlled by public sector oil retailing firms	Positive	Business Performance	26
215		28480	Reliance Industries	In its latest annual report RIL said the double-digit growth  observed over 52 consecutive months might have been stalled due to the COVID-19 pandemic but India continues to be one of the fastest  growing aviation markets in the world for the fifth consecutive year	Positive	Business Performance	27
216		28480	Reliance Industries	RIL which operates the worlds largest  single location oil refining complex  plans to capture this opportunity through increased  presence at airports to refuel airplanes	Positive	New Projects	8
217		28480	Reliance Industries	Following the COVID-19 pandemic while travel restrictions were being imposed elsewhere India was largely unaffected  till the end of March 2020 before the sharp escalation in travel bans globally and lockdowns impacted  Indias aviation sector too	Negative	General	10
218		28480	Reliance Industries	On account of its network strength  cost competitiveness industry leading technology and best-in-class service standards RIL improved  its volume share in the domestic market according to the annual report	Positive	Business Performance	28
219		28480	Reliance Industries	RIL is looking to increase  its network to 45 locations as against 30 at the end of FY 2019-20 and is well geared to benefit  with the growth  in the Indian aviation market it said	Positive	Business Performance	29
220		28480	Reliance Industries	RIL is the largest  private aviation fuel retailer with 31 stations according to the latest data from the oil ministry	Positive	Business Performance	30
221		28480	Reliance Industries	Russias Rosneft-backed Nayara Energy is the biggest  private auto fuel retailer with 5720 petrol pumps	Positive	New Projects	9
222		28480	Reliance Industries	Advertisement RIL said it registered 98 per cent growth  in retail diesel sales and 147 per cent in retail petrol volume as compared with 15 per cent and 63 per cent for industry respectively	Positive	Business Performance	31
223		28480	Reliance Industries	During financial year 2019-20 RIL registered over 10 per cent growth  in average outlet sales volume	Positive	Business Performance	32
224		28480	Reliance Industries	On bulk diesel RIL said it registered a volume growth  of 108 per cent increasing market share to 88 per cent despite expected demand contraction and margin pressure	Positive	Business Performance	33
225		28480	Reliance Industries	Direct sales volume would be driven by continued volume growth  from railways and sourcing higher volume shares in State Transport Units STUs it said	Positive	Business Performance	34
226	Positive	28481	Reliance Industries	The 10 most valued Indian companies together added a whopping Rs 13750861 crore in market valuation last week with TCS and RIL emerging  as the biggest  gainers	Positive	Business Performance	35
227		28481	Reliance Industries	During the past week the 30-share BSE Sensex advanced  85015 points or 241 per cent	Positive	Business Performance	36
228		28481	Reliance Industries	The valuation of Bharti Airtel moved higher by Rs 1134756 crore to Rs 31702244 crore and that of HDFC Bank advanced  Rs 1021192 crore to Rs 58976572 crore	Positive	Business Performance	37
229	Positive	28483	Reliance Industries	Intel Capital has an outstanding  record of being a valuable  partner for leading technology companies globally	Positive	General	11
230		28483	Reliance Industries	We are therefore excited  to work together with Intel to advance Indias capabilities in cutting-edge technologies that will empower  all sectors of our economy said Mukesh Ambani chairman and managing director Reliance Industries Ltd Jio	Positive	General	12
231		28483	Reliance Industries	Platforms focus on applying its impressive  engineering capabilities to bring the power of low-cost digital services to India aligns with Intels purpose of delivering breakthrough  technology that enriches	Positive	Market Expansion	1
232	Positive	28482	Reliance Industries	After raising billions of dollars from the likes  of Facebook and Intel for its digital business billionaire Mukesh Ambanis Reliance Industries has launched JioMeet video-conferencing app with unlimited free  calling that is being seen as rate war on rival  Zoom	Positive	General	13
233		28482	Reliance Industries	According to the company website JioMeet supports HD audio and video call quality with up to 100 participants and offers features like  screen sharing meeting schedule feature and more	Positive	General	14
234		28482	Reliance Industries	But unlike Zoom it does not impose  a 40-minute time limit	Positive	Business Performance	38
235		28482	Reliance Industries	Based on USD 15 per month charge for meetings of more than 40 minutes on Zoom USD 180 on annual basis JioMeet is providing the same functionality and more free  of cost translating into Rs 13500 savings  for a host per year company sources said	Positive	Business Performance	39
236		28482	Reliance Industries	According to app features listed on Google Play Store JioMeet offers easy  sign up with either mobile number or e-mail ID and allows creation of instant meeting	Positive	New Projects	10
237		28482	Reliance Industries	Each meeting is password protected and the host can enable  Waiting Room to ensure  no participant joins without permission	Positive	General	15
238		28482	Reliance Industries	Other features include Safe  Driving Mode while driving multi-device login support for up to five devices and seamless switching from one device to other while on call	Positive	General	16
239		28482	Reliance Industries	The app which has already seen more than 5 lakh downloads on the Google Play Store and iOS comes amid the government imposing  a ban on 59 popular  Chinese apps including TikTok on grounds that they threatened national security and data privacy	Negative	Business Risk	3
240		28482	Reliance Industries	Company sources said no restriction  on time limit on JioMeet means teachers will not be required to cut short their classes as they are forced  to do on Zoom	Positive	Business Risk	4
241		28482	Reliance Industries	Also JioMeet has two advanced  meeting settings over and above Zoom options	Positive	New Projects	11
242		28482	Reliance Industries	If enabled only users from the hosts organsation can join that meeting eliminating potential  snoops from other IDs	Positive	General	17
243		28482	Reliance Industries	JioMeet allows nine active  participants on a single mobile screen	Positive	General	18
244	Negative	28484	Siemens AG	Ralf Thomas told Saturdays edition of the newspaper that the companys financial third quarter which runs April to June will be a big challenge for us as for most other market participants as well due to the coronavirus crisis  	Negative	Business Performance	19
245		28484	Siemens AG	However it will not be a bottomless fall  he said adding that the business volume of short-cycle activities had likely contracted by between 10% and 20% in the period	Positive	Business Performance	20
246		28484	Siemens AG	Thomas had said in May he expected a 5% drop in revenue in the financial year ending in September after guiding for moderate sales growth  before the virus outbreak 	Negative	Business Performance	21
247		28484	Siemens AG	He said activity in 2021 would not reach 2019s level across all businesses or regions but said Siemens had a competitive advantage  over rivals in some areas without offering details	Positive	Market Expansion	7
248	Positive	28462	Acer Inc	Considering the price-to-performance ratio of the 2019 model and how it arrived slightly earlier to the market it was only a matter of time before the company refreshed  it	Positive	Business Performance	3
249		28462	Acer Inc	The new version now comes with Intels latest 10th-generation Core i7-10750H processor a 6-core part which can boost  up to 500GHz	Positive	Market Expansion	3
250		28462	Acer Inc	With that 1080p 144Hz display youll effortlessly be able  to hit high framerates with this kind of hardware even in the most demanding of titles and the 2020 Acer Predator Helios 300 will keep its thermals in check while doing so too	Positive	General	2
251		28462	Acer Inc	Where the 2019 model was offered with only 256GB of storage Acer has upped it up to 512GB of NVMe storage and has also provided  two extra slots with which you upgrade your existing storage	Positive	Market Expansion	4
252		28462	Acer Inc	For $1199 this is one of the most compelling  gaming laptops you can get right  now considering the hardware youre getting in return	Positive	Business Performance	4
253	Neutral	28413	ABB Ltd	November 2004 die  Geschäftsführung	Negative	General	13
254		28413	ABB Ltd	Der Aufsichtsrat von ABB Deutschland danke  Krabbe auch	Positive	New Projects	16
255	Neutral	28415	ABB Ltd	Hitachi claimed that the combination of the power grid business with its advanced  digital technologies will provide  innovative  energy solutions	Positive	General	14
256	Positive	28416	ABB Ltd	03 July 2020 ABB has signed an extension to its existing service contract with Hvaler Kommune part of a group of islands in the southern part of Norway to provide  cutting-edge digital services to minimise water leakage  and improve  operational efficiency	Positive	New Projects	17
257		28416	ABB Ltd	The companys digital data streaming service ABB Ability EdgeInsight is transmitted safely  right  from the heart of the control  system without any filtering or intermediate storage in databases empowering better  use of the utilitys operational data and environmental sustainability 	Positive	Market Expansion	9
258		28416	ABB Ltd	The unique  streaming solution has been pioneered by ABB in Norway and was first commercially applied in offshore oil and gas earlier this year at OKEAs Draugen platform	Positive	New Projects	18
259	Positive	28423	BASF SE	Worley WOR has been awarded  a contract by the largest  chemical producer in the world BASF SE for its European battery material investment project	Positive	New Projects	1
260		28423	BASF SE	The plant will be powered by electricity from renewable energy sources such as hydro wind and biomass Under the contract Worley will provide  engineering procurement and construction management services	Positive	New Projects	2
261		28423	BASF SE	On market close Worley is down 090 per cent and is trading for $883 per share Worley WOR has been awarded  a contract by the largest  chemical producer in the world BASF SE for its European battery material investment project in Finland	Positive	New Projects	3
262		28423	BASF SE	Under the contract Worley will provide  engineering procurement and construction management services	Positive	New Projects	4
263		28423	BASF SE	a global professional services company headquartered in Australia we are pleased  to continue supporting  BASF in the European battery production market CEO Chris Ashton said	Positive	New Projects	5
264		28423	BASF SE	We help  our customers adapt to the worlds changing energy needs and achieve their renewable energy goals so this is a strategically significant  project for Worley he added	Positive	Market Expansion	1
265	Positive	28424	BEML Ltd	We are in talks with Indian manufacturers like  Bharat Earth Movers Limited BEML Bharat Heavy Electricals Limited BHEL and Titagarh	Positive	Business Performance	1
266		28424	BEML Ltd	The latter has also been positive  on manufacturing the rolling stock which is quite a breakthrough said a senior official from MMRDA Bengaluru-based BEML is already manufacturing metro rakes for Metro 2A Dahisar-DN Nagar and Metro-7	Positive	Business Performance	2
267		28424	BEML Ltd	On June 2020 MMRDA confirmed that two responses received for the tender  on manufacturing 10 rakes both from Chinese companies CRRC corporation Ltd and	Positive	Business Performance	3
268	Positive	28426	BEML Ltd	UNI Camp police station sealed down on Friday as accused who was arrested by the police station officers tested positive  for COVID	Positive	Business Performance	4
269		28426	BEML Ltd	Karnataka Co-Operation Minister S T Somashekar on Friday said that the decision to reduce  the market cess on Agricultural Produce Market Committee APMC traders from across the state will be decided in the cabinet meeting to be held on July 9 see more	Positive	Business Performance	5
270	Negative	28430	Exide Industries Ltd	At a time when new vehicle sales are few and far between auto component players with a sizeable  presence in after-market sales are better-placed to tide over the slowdown 	Negative	General	1
271		28430	Exide Industries Ltd	Investors with a one- to two-year perspective can buy  the stock of Exide Industries	Positive	Business Performance	1
272		28430	Exide Industries Ltd	This apart presence in industrial batteries is a positive 	Positive	General	2
273		28430	Exide Industries Ltd	The company is also a market leader in almost all the segments it operates in such as UPS solar railways power and traction  applications	Positive	New Projects	1
274		28430	Exide Industries Ltd	Taking cue from the rally in the broader market the stock has gained  about 25 per cent from the one-year low of ?	Positive	Business Performance	2
275		28430	Exide Industries Ltd	Overall volume growth  for the auto industry which stood at 515 per cent in 2018-19 over the previous fiscal dropped by about 18 per cent in 2019-20	Positive	Business Performance	3
276		28430	Exide Industries Ltd	This fiscal too has been a near wipe-out so far with the Covid-19 outbreak  forcing production and dealership shutdowns	Negative	Business Performance	4
277		28430	Exide Industries Ltd	Job losses  pay cuts and income uncertainty are dampeners to purchases at this juncture	Negative	Business Performance	5
278		28430	Exide Industries Ltd	Besides commercial vehicle sales are faced with bigger challenges due to the overall economic slowdown  decreasing demand for freight carriage	Negative	Business Risk	1
279		28430	Exide Industries Ltd	The permit for existing vehicles to carry higher loads new axle load norms have also been a big blow  to new truck sales	Negative	General	3
280		28430	Exide Industries Ltd	While companies expect some green shoots only from the second half of this fiscal CRISIL expects the auto industry to record a 21-28 per cent fall  in volumes in 2020-21	Negative	Business Performance	6
281		28430	Exide Industries Ltd	A meaningful recovery  in new vehicle sales could be possible only in the next fiscal	Positive	Business Performance	7
282		28430	Exide Industries Ltd	In such a scenario battery and tyre manufacturers are better-placed to tide over the slowdown  as they have a sizeable  presence in after-market sales as these components need to be replaced every 3-4 years in existing vehicles	Negative	Business Risk	2
283		28430	Exide Industries Ltd	Over the past few years Exide has initiated measures to strengthen  its market share in the automotive replacement segment	Positive	Market Expansion	1
284		28430	Exide Industries Ltd	These include increased  support to dealers improvement  in after-sales service faster  turnaround in warranty claims launch of new products and a marketing push of brands such as Dynex which is targeted at the lower-value segment	Positive	Business Performance	8
285		28430	Exide Industries Ltd	Over the long term the Goods and Services Tax GST regime should benefit  Exide on the replacement side as well 	Positive	General	4
286		28430	Exide Industries Ltd	Compliance requirements under the GST will bring down the price advantage  that unorganised battery-makers enjoy  currently	Positive	Business Risk	3
287		28430	Exide Industries Ltd	This is expected to increase  demand for organised players such as Exide especially in the commercial vehicles and tractors segments	Positive	Market Expansion	2
288		28430	Exide Industries Ltd	Exide is well-placed to catch up when new vehicle sales pick up too		Market Expansion	3
289		28430	Exide Industries Ltd	It counts almost all auto manufacturers such as Hyundai Honda Toyota Volkswagen Mahindra and Mahindra Tata Motors Maruti Suzuki Hero  Ashok Leyland Bajaj Auto TVS Royal Enfield and Honda two-wheelers among its clients	Positive	New Projects	2
290		28430	Exide Industries Ltd	Financials Tepid  demand from the auto manufacturers as well  as disruption  due to the lockdown saw the company clocking weak  numbers in the quarter ended March 2020	Negative	Business Performance	9
291		28430	Exide Industries Ltd	Lack  of operating leverage weighed on the margins	Negative	Business Performance	10
292		28430	Exide Industries Ltd	Given the global slowdown  raw material prices are not expected to inch up sharply  this year	Negative	Business Performance	11
293		28430	Exide Industries Ltd	The company is debt-free		Business Performance	12
294	Negative	28440	LafargeHolcim	Buy  Die  US-Investmentbank Goldman Sachs hat die Einstufung für	Negative	Business Performance	1
295		28440	LafargeHolcim	Buy  mit einem Kursziel von 53 Franken belassen	Positive	Business Performance	2
296	Positive	28425	BEML Ltd	BEML has already bagged  the contract for manufacturing metro rakes for Metro 2A Dahisar-DN Nagar and Metro-7	Positive	New Projects	1
297		28425	BEML Ltd	Last year MMRDA had floated a global tender  to design manufacture and supply 10 rakes and had received bids from Chinas CRR Corporation China Rail Road Corporation and BYD Build Your Dreams as well as an American firm	Positive	New Projects	2
298		28425	BEML Ltd	However the authority later cancelled the tender  in January this year when bidders were seeking changes in the terms	Positive	Business Performance	6
299		28425	BEML Ltd	MMRDA also noted that due to the current economic situation that has arisen following the COVID-19 pandemic and in line with the various polices announced by the government to encourage  Make in India schemes it has been decided to look for Indian technology partners for development and long term support	Positive	General	1
300		28425	BEML Ltd	The latter had failed  to supply the contracted rakes and other operational materials including signalling equipment and maintain the quality of monorail services despite many extensions	Negative	Business Performance	7
301		28425	BEML Ltd	The L&T-Scomi consortium had won  the Rs2460-crore contract in 2009 to build and operate the 195-km monorail network on the Chembur-Wadala-Jacob Circle corridor connecting the eastern periphery of the city to the central parts	Positive	New Projects	3
302		28425	BEML Ltd	* Thank  you for subscribing to our newsletter	Positive	General	2
303	Positive	28427	Bharat Heavy Electricals Ltd	BEML has already bagged  the contract for manufacturing metro rakes for Metro 2A Dahisar-DN Nagar and Metro-7	Positive	New Projects	1
304		28427	Bharat Heavy Electricals Ltd	Last year MMRDA had floated a global tender  to design manufacture and supply 10 rakes and had received bids from Chinas CRR Corporation China Rail Road Corporation and BYD Build Your Dreams as well as an American firm	Positive	New Projects	2
305		28427	Bharat Heavy Electricals Ltd	However the authority later cancelled the tender  in January this year when bidders were seeking changes in the terms	Positive	Business Performance	1
306		28427	Bharat Heavy Electricals Ltd	MMRDA also noted that due to the current economic situation that has arisen following the COVID-19 pandemic and in line with the various polices announced by the government to encourage  Make in India schemes it has been decided to look for Indian technology partners for development and long term support	Positive	General	1
307		28427	Bharat Heavy Electricals Ltd	The latter had failed  to supply the contracted rakes and other operational materials including signalling equipment and maintain the quality of monorail services despite many extensions	Negative	Business Performance	2
308		28427	Bharat Heavy Electricals Ltd	The L&T-Scomi consortium had won  the Rs 2460-crore contract in 2009 to build and operate the 195-km monorail network on the Chembur-Wadala-Jacob Circle corridor connecting the eastern periphery of the city to the central parts	Positive	New Projects	3
309	Positive	28406	ABB Ltd	03 July 2020 ABB has signed an extension to its existing service contract with Hvaler Kommune part of a group of islands in the southern part of Norway to provide  cutting-edge digital services to minimise water leakage  and improve  operational efficiency	Positive	New Projects	19
310		28406	ABB Ltd	The companys digital data streaming service ABB Ability EdgeInsight is transmitted safely  right  from the heart of the control  system without any filtering or intermediate storage in databases empowering better  use of the utilitys operational data and environmental sustainability 	Positive	Market Expansion	10
311		28406	ABB Ltd	The unique  streaming solution has been pioneered by ABB in Norway and was first commercially applied in offshore oil and gas earlier this year at OKEAs Draugen platform	Positive	New Projects	20
312	Neutral	28405	ABB Ltd	Hitachi claimed that the combination of the power grid business with its advanced  digital technologies will provide  innovative  energy solutions	Positive	General	15
313	Positive	28419	Acer Inc	Acer has announced its new Swift  5 notebook that offers a new take on productivity powerful  yet light enough  to be carried around throughout the day	Positive	General	3
314		28419	Acer Inc	The ultraportable device is a beacon of both design and performance sporting a professional aesthetic that is backed up by impressive  functionality	Positive	New Projects	1
315		28419	Acer Inc	This years model features ultra-narrow bezels that allow for a 90% screen-to-body ratio a touchscreen with Antimicrobial Corning Gorilla Glass and new colours such as mist  green	Negative	New Projects	2
316		28419	Acer Inc	The new Swift  5 pushes the envelope on what thin-and-light notebooks can be said James Lin General Manager Notebooks IT Products Business	Positive	General	4
317		28419	Acer Inc	Acer Inc A productivity powerhouse housed in a sleek  and ultraportable chassis the Swift  5 is an excellent  option for professionals who are always on the move and seeking a device capable  of keeping up with them	Positive	Market Expansion	5
318		28419	Acer Inc	Its 1495 mm 059 in chassis is made from high-grade magnesium-lithium and magnesium-aluminium allowing it to pack the next-gen Intel Core processors with powerful  integrated  graphics based on Intels new Xe architecture and optional NVIDIA GeForce MX350 GPUs while staying under 1 kg 22 lbs	Positive	New Projects	3
319		28419	Acer Inc	This power makes it possible to seamlessly run multiple applications at once and 1 TB of high-speed PCle SSD storage on top  of up to 16 GB LPDDRAX ensures that they load quickly	Positive	New Projects	4
320		28419	Acer Inc	Furthermore those in the office or on a conference call will appreciate  the ability to control  how much sound the device makes by alternating between three cooling modes: silent  normal or performance	Positive	New Projects	5
321		28419	Acer Inc	Svelte Aesthetics and a Stunning  Screen	Positive	New Projects	6
322		28419	Acer Inc	The Swift  5 has an elegant  design that comes in two colour palates: mist  green or safari gold both with gold accents	Positive	Market Expansion	6
323		28419	Acer Inc	The notebooks all-metal chassis is defined by confidently sharp  angles and a minimalist profile that makes it an excellent  option for image-conscious professionals	Positive	General	5
324		28419	Acer Inc	That being said the Swift  5s design is not all about looks	Positive	New Projects	7
325		28419	Acer Inc	This years model includes a specially designed hinge that slightly elevates the device while the screen is opened allowing for a more ergonomic typing experience better  thermal performance and most notably makes the devices beautiful  screen more prominent 	Positive	Business Performance	5
326		28419	Acer Inc	Opening the notebook reveals a generously large  trackpad and a 14-inch FHD IPS4 touchscreen display both of which support multi-finger gestures to offer an incredibly intuitive  experience	Positive	New Projects	8
327		28419	Acer Inc	The screen features 300 nits brightness covers 72% of the NTSC gamut and is surrounded by ultra-narrow bezels on all four sides that allow for up to a 90% screen-to-body ratio creating a vivid  and immersive viewing experience that makes the Swift  5 perfect for enjoying  movies and relaxing after work	Positive	Business Risk	1
328		28419	Acer Inc	The Swift  5s touchscreen display is covered with a layer of Antimicrobial Corning Gorilla Glass which has been specially formulated to reduce  the growth  of odour and stain-causing microorganisms on the touch display	Positive	General	6
329		28419	Acer Inc	The Swift  5 features a large  56 Wh battery that lasts all day and can be fast-charged in a pinch granting 4 hours of use off just a 30-minute charge-time	Positive	General	7
330		28419	Acer Inc	Bluetooth 50 make it an excellent  choice for professionals and users who need to work on the go	Positive	General	8
331		28419	Acer Inc	For convenience  and security the Swift  5 is also equipped with an embedded fingerprint reader for Windows Hello	Positive	General	9
332		28419	Acer Inc	The Acer Swift  5 will be available in North America in October starting at USD 99999; in EMEA in October starting at EUR 1099; and in China in October starting at RMB 6999	Positive	Business Performance	6
333		28419	Acer Inc	Like  this content?	Positive	General	10
334		28419	Acer Inc	Sign up for the free  PCR Daily Digest email service to get the latest tech news straight to your inbox	Positive	General	11
335	Positive	28420	Acer Inc	Acer has launched Enduro its new line of rugged  notebooks and tablets specially designed to provide  the durability portability and performance needed by professionals working in the field	Positive	New Projects	9
336		28420	Acer Inc	First responders and industrial manufacturing workers will find the Acer Enduro N7 to be a reliable  companion while event producers and outdoor hobbyists will appreciate  the thin-and-light yet durable  Enduro N3	Positive	New Projects	10
337		28420	Acer Inc	With an increasingly modern  workforce more and more mobile devices are being deployed in the field where they are subject to harsher handling	Positive	General	12
338		28420	Acer Inc	Enduro our new line of rugged  notebooks and tablets was created to provide  our customers with the durability and performance that gets the job done said Andrew Chuang General Manager Rugged  Computing Acer Inc Acer Enduro N7 Rugged  Notebook	Positive	New Projects	11
339		28420	Acer Inc	The Acer Enduro N7 is a rugged  notebook constructed with shock-absorbent materials to offer the reliability needed by first responders field and industrial manufacturing workers while on the job	Positive	Business Risk	2
340		28420	Acer Inc	MIL-810G and IP65 certified the device has been engineered to withstand drops onto the hardest flooring and to resist the ingress of dust  and water	Negative	New Projects	12
341		28420	Acer Inc	This durability makes the device suitable  for work hot  or cold and its 700-nit 14-inch FHD screen offers excellent  visibility whether inside or outside	Positive	New Projects	13
342		28420	Acer Inc	For those working long days the Enduro N7 comes with dual batteries: one hot-swappable battery with a long 10-hour life and another built-in bridge battery		New Projects	14
343		28420	Acer Inc	In addition to being able  to physically survive chaotic  work environments the Enduro N7 is equipped  with the technology necessary to thrive  in a modern  workplace	Positive	General	13
344		28420	Acer Inc	A quad-core 8th Gen Intel Core i5 CPU offers enough  power to smoothly  navigate between several different applications and work on multiple tasks at the same time	Positive	General	14
345		28420	Acer Inc	The Enduro N7 is also very secure: hardware-level Trusted  Platform Module TPM 20 checks for any signs of intrusion  during startup and the Acer Enduro Manageability Suite AEMS serves to help  protect  the device while also making it easy  to deploy services or system configurations across many devices	Positive	Business Performance	7
346		28420	Acer Inc	Acer Enduro N3 Rugged  Notebook	Positive	Business Performance	8
347		28420	Acer Inc	The Acer Enduro N3 is a powerful  notebook that strikes a balance between durability and portability making it ideal  for users who rotate between several worksites such as architects project inspectors event managers agricultural plant personnel or even lovers of the outdoors who want to record their adventures	Positive	New Projects	15
348		28420	Acer Inc	810G and IP53 certifications while maintaining a thin-and-light frame of just 2485 mm 098 in at 1985 kg 437 lb		New Projects	16
349		28420	Acer Inc	Some of these features include reinforced corners for drops Corning Gorilla Glass to protect  the display from water and the unique  water-resistant Aquafan	Positive	General	15
350		28420	Acer Inc	This physical protection  comes on top  of premium  levels of protection  against cyber threats  thanks to technology like  Discrete Trusted  Platform Module AEMS and password-protected HDDs	Positive	Business Performance	9
351		28420	Acer Inc	13-hour battery life is safe  and this safety does not come at the expense of performance	Positive	Business Performance	10
352		28420	Acer Inc	The Enduro N3 boasts a 10th Gen Intel Core i7 processor and 32 GB of DDR4 RAM giving it reliable  performance with an optional NVIDIA GeForce MX230 discrete GPU and 512 GB PCle Gen3 NVMe SSD for those with exceptionally heavy workloads	Positive	New Projects	17
353		28420	Acer Inc	The Acer Enduro Management Suite AEMS is a system designed to streamline the management of large  quantities of devices helping  to keep existing devices more secure  and speed up the process of rolling new ones out	Positive	Market Expansion	7
354		28420	Acer Inc	I/O Control:		Business Performance	11
355		28420	Acer Inc	The ability to remotely enable/disable access to I/O ports		General	16
356		28420	Acer Inc	Cameras and barcode scanners may also be enabled or disabled 	Negative	General	17
357		28420	Acer Inc	The Acer Enduro T5 ET510-51W is a durable  and rugged  10-inch Windows tablet designed for long periods of work in extreme environments	Positive	New Projects	18
358		28420	Acer Inc	All on top  of MIL-STD 810G and IP65 certifications and AEMS	Positive	General	18
359		28420	Acer Inc	The devices MIL-STD 810G and IP54 certifications combined with an Intel Celeron processor and 64 GB of eMMC storage space make it a reliable  and convenient  option for quick work on the go	Positive	New Projects	19
360		28420	Acer Inc	Android tablet designed especially for smart  retail warehouse and factory workers	Positive	New Projects	20
361		28420	Acer Inc	MIL-STD 810G and IP54 certified the device also features a range of optional accessories and programmable keys that enable  it to be adapted to a variety  of unique  environments	Positive	General	19
362		28420	Acer Inc	Like  this content?	Positive	General	20
363		28420	Acer Inc	Sign up for the free  PCR Daily Digest email service to get the latest tech news straight to your inbox	Positive	General	21
364	Positive	28421	Acer Inc	At Acers online global press conference the company announced significant  new updates to four of its popular  gaming notebooks: the Predator Helios 700 Predator Helios 300 Predator Triton 300 and Nitro 7	Positive	Market Expansion	8
365		28421	Acer Inc	These new refreshed  models bring exciting  updates across the board giving gamers of all levels and types something to look forward  to	Positive	General	22
366		28421	Acer Inc	2070 SUPER  graphics deliver the performance needed to drive fast  displays with high refresh  rates for blur-free seamless  visuals even in the most demanding of AAA games	Positive	General	23
367		28421	Acer Inc	To keep the notebooks operating at peak performance and optimal  temperature Acer has equipped  the notebooks with enhanced  thermal designs new cooling technologies and additional heat pipes	Positive	General	24
368		28421	Acer Inc	The Predator Helios 700 featuring the iconic  sliding HyperDrift keyboard has been upgraded  to include either an overclockable 10th Gen Intel Core i9-10980HK or i7-10875H processor and NVIDIA GeForce	Positive	New Projects	21
369		28421	Acer Inc	RTX 2080 SUPER  or RTX 2070 SUPER  graphics	Positive	New Projects	22
370		28421	Acer Inc	The devices thermal management capabilities have been significantly enhanced  with a new thermal solution called Predator PowerGem included on models with the Intel Core i9 processor	Positive	Market Expansion	9
371		28421	Acer Inc	PowerGem is a special material with 383 times more vertical heat conductivity than copper improving  the notebooks heat emission efficiency 	Positive	Business Performance	12
372		28421	Acer Inc	All models include three copper heat pipes Acer CoolBoost Technology a vapour chamber and two Acer custom-engineered 4th Gen AeroBlade 3D fans 	Positive	New Projects	23
373		28421	Acer Inc	AX1650i wireless and E3100G Ethernet to ensure  that speed-critical applications get bandwidth priority	Positive	Business Risk	3
374		28421	Acer Inc	Fast  PCIe NVMe Solid  State Drives in RAID 0 keep everything lightning fast  and games will roar to life on the Helios	Positive	Market Expansion	10
375		28421	Acer Inc	700s beautiful  173-inch 144 Hz FHD IPS1 display and NVIDIA G-SYNC technology	Positive	New Projects	24
376		28421	Acer Inc	The keyboard which features per-key RGB lighting and anti-ghosting has been updated to include MagTek mechanical switches for the WASD keys and a set of new racing keys which offer increased  precision	Positive	General	25
377		28421	Acer Inc	Designed for racing games they feature a 15 mm of keycap curvature that enables gamers to make finer  and more controlled movements in-game	Positive	New Projects	25
378		28421	Acer Inc	Powerful  Feature Packed Acers	Positive	Market Expansion	11
379		28421	Acer Inc	popular  Predator Helios 300 has raised the bar for gaming notebooks offering the best  performance for the dollar	Positive	General	26
380		28421	Acer Inc	FHD IPS display with 3 ms overdrive the newest  Helios 300 has cemented its reputation  as one of the most powerful  and feature-packed yet affordably-priced gaming notebooks available	Positive	Business Performance	13
381		28421	Acer Inc	It also supports up to 32 GB of 2933 MHz DDR4 memory two PCIe NVMe SSDs in RAID 0 configuration and up to a 2 TB hard  drive delivering the speed and storage necessary to maintain large  libraries of AAA games and movies	Negative	Market Expansion	12
382		28421	Acer Inc	With headphones it provides  an authentic  audio experience letting sounds be heard as they were meant to be whether near or far and has specifically tuned sound modes that are optimized for different game genres strategy RPG or FPS	Positive	General	27
383		28421	Acer Inc	custom-engineered cooling technology ensures that the device runs at an optimal  temperature	Positive	General	28
384		28421	Acer Inc	The notebook features dual fans  including one newly-designed 4th Generation AeroBlade 3D fan that reduces noise  while increasing airflow and Acer CoolBoost which allows manual adjustment of the fans  to ensure  that critical  areas receive continuous cooling	Positive	Business Risk	4
385		28421	Acer Inc	Predator Triton 300 gaming notebook has been refreshed  to include a 10th Gen Intel Core H-series processor up to	Positive	New Projects	26
386		28421	Acer Inc	NVIDIA GeForce RTX 2070 with Max-Q Design graphics and a 240 Hz display refresh  rate	Positive	General	29
387		28421	Acer Inc	The 156-inch FHD IPS display also features a 3 ms response time 300 nit brightness and 100% sRGB spec making it ideal  for both gaming and content creation	Positive	Business Performance	14
388		28421	Acer Inc	It further supports up to three M2 SSDs one PCIe two combos providing an abundance  of storage and the lightning-fast transfer rates and speed that gamers crave	Positive	New Projects	27
389		28421	Acer Inc	Three heat pipes have been added to the devices advanced  thermal design which also includes a dual-fan cooling system one	Positive	New Projects	28
390		28421	Acer Inc	All this performance is housed in a thin  and lightweight metal chassis that measures just 199 mm 078 inches thin  and 21 kg 463 lbs making it easy  to game on the go	Negative	New Projects	29
391		28421	Acer Inc	Nitro 7  Sleek  Metal Design for Gaming on the Go Acers	Positive	New Projects	30
392		28421	Acer Inc	Its sleek  metal chassis measures just 199 mm 078 inches thin  and 25 kg 551 lbs but still manages to pack in a 10th Gen Intel Core H-series processor and up to a GeForce	Negative	New Projects	31
393		28421	Acer Inc	With up to three slots for high-speed M2 SSDs up to 1 TB in RAID 0 configuration up to 32 GB of DDR4 2933 memory Killer  Ethernet E2600 and Intel Wi-Fi 6 game load and response times are incredibly quick	Negative	Market Expansion	13
394		28421	Acer Inc	The Nitro 7s thermal design includes dual fans  a quad exhaust port design and Acer CoolBoost technology adjustable  in NitroSense to increase  fan speed by 10% and CPU/GPU cooling by 9% compared to auto-mode	Positive	New Projects	32
395		28421	Acer Inc	On top  of the performance this makes possible a 156-inch non-glare FHD IPS display with a 144 Hz refresh  rate and 3 ms response allows for sharp  visuals and smooth blur-free gameplay	Positive	General	30
396		28421	Acer Inc	Like  this content?	Positive	General	31
397		28421	Acer Inc	Sign up for the free  PCR Daily Digest email service to get the latest tech news straight to your inbox	Positive	General	32
398	Positive	28460	Tata Steel	FNV is satisfied  with the result of the negotiations Fastmarkets understands	Positive	Business Risk	9
399	Positive	28409	Acer Inc	Acer has announced its new Swift  5 notebook that offers a new take on productivity powerful  yet light enough  to be carried around throughout the day	Positive	General	33
400		28409	Acer Inc	The ultraportable device is a beacon of both design and performance sporting a professional aesthetic that is backed up by impressive  functionality	Positive	New Projects	33
401		28409	Acer Inc	This years model features ultra-narrow bezels that allow for a 90% screen-to-body ratio a touchscreen with Antimicrobial Corning Gorilla Glass and new colours such as mist  green	Negative	New Projects	34
402		28409	Acer Inc	The new Swift  5 pushes the envelope on what thin-and-light notebooks can be said James Lin General Manager Notebooks IT Products Business	Positive	General	34
403		28409	Acer Inc	Acer Inc A productivity powerhouse housed in a sleek  and ultraportable chassis the Swift  5 is an excellent  option for professionals who are always on the move and seeking a device capable  of keeping up with them	Positive	Market Expansion	14
404		28409	Acer Inc	Its 1495 mm 059 in chassis is made from high-grade magnesium-lithium and magnesium-aluminium allowing it to pack the next-gen Intel Core processors with powerful  integrated  graphics based on Intels new Xe architecture and optional NVIDIA GeForce MX350 GPUs while staying under 1 kg 22 lbs	Positive	New Projects	35
405		28409	Acer Inc	This power makes it possible to seamlessly run multiple applications at once and 1 TB of high-speed PCle SSD storage on top  of up to 16 GB LPDDRAX ensures that they load quickly	Positive	New Projects	36
406		28409	Acer Inc	Furthermore those in the office or on a conference call will appreciate  the ability to control  how much sound the device makes by alternating between three cooling modes: silent  normal or performance	Positive	New Projects	37
407		28409	Acer Inc	Svelte Aesthetics and a Stunning  Screen	Positive	New Projects	38
408		28409	Acer Inc	The Swift  5 has an elegant  design that comes in two colour palates: mist  green or safari gold both with gold accents	Positive	Market Expansion	15
409		28409	Acer Inc	The notebooks all-metal chassis is defined by confidently sharp  angles and a minimalist profile that makes it an excellent  option for image-conscious professionals	Positive	General	35
410		28409	Acer Inc	That being said the Swift  5s design is not all about looks	Positive	New Projects	39
411		28409	Acer Inc	This years model includes a specially designed hinge that slightly elevates the device while the screen is opened allowing for a more ergonomic typing experience better  thermal performance and most notably makes the devices beautiful  screen more prominent 	Positive	Business Performance	15
412		28409	Acer Inc	Opening the notebook reveals a generously large  trackpad and a 14-inch FHD IPS4 touchscreen display both of which support multi-finger gestures to offer an incredibly intuitive  experience	Positive	New Projects	40
413		28409	Acer Inc	The screen features 300 nits brightness covers 72% of the NTSC gamut and is surrounded by ultra-narrow bezels on all four sides that allow for up to a 90% screen-to-body ratio creating a vivid  and immersive viewing experience that makes the Swift  5 perfect for enjoying  movies and relaxing after work	Positive	Business Risk	5
414		28409	Acer Inc	The Swift  5s touchscreen display is covered with a layer of Antimicrobial Corning Gorilla Glass which has been specially formulated to reduce  the growth  of odour and stain-causing microorganisms on the touch display	Positive	General	36
415		28409	Acer Inc	The Swift  5 features a large  56 Wh battery that lasts all day and can be fast-charged in a pinch granting 4 hours of use off just a 30-minute charge-time	Positive	General	37
416		28409	Acer Inc	Bluetooth 50 make it an excellent  choice for professionals and users who need to work on the go	Positive	General	38
417		28409	Acer Inc	For convenience  and security the Swift  5 is also equipped with an embedded fingerprint reader for Windows Hello	Positive	General	39
418		28409	Acer Inc	The Acer Swift  5 will be available in North America in October starting at USD 99999; in EMEA in October starting at EUR 1099; and in China in October starting at RMB 6999	Positive	Business Performance	16
419		28409	Acer Inc	Like  this content?	Positive	General	40
420		28409	Acer Inc	Sign up for the free  PCR Daily Digest email service to get the latest tech news straight to your inbox	Positive	General	41
421	Positive	28410	Acer Inc	Acer has launched Enduro its new line of rugged  notebooks and tablets specially designed to provide  the durability portability and performance needed by professionals working in the field	Positive	New Projects	41
422		28410	Acer Inc	First responders and industrial manufacturing workers will find the Acer Enduro N7 to be a reliable  companion while event producers and outdoor hobbyists will appreciate  the thin-and-light yet durable  Enduro N3	Positive	New Projects	42
423		28410	Acer Inc	With an increasingly modern  workforce more and more mobile devices are being deployed in the field where they are subject to harsher handling	Positive	General	42
424		28410	Acer Inc	Enduro our new line of rugged  notebooks and tablets was created to provide  our customers with the durability and performance that gets the job done said Andrew Chuang General Manager Rugged  Computing Acer Inc Acer Enduro N7 Rugged  Notebook	Positive	New Projects	43
425		28410	Acer Inc	The Acer Enduro N7 is a rugged  notebook constructed with shock-absorbent materials to offer the reliability needed by first responders field and industrial manufacturing workers while on the job	Positive	Business Risk	6
426		28410	Acer Inc	MIL-810G and IP65 certified the device has been engineered to withstand drops onto the hardest flooring and to resist the ingress of dust  and water	Negative	New Projects	44
427		28410	Acer Inc	This durability makes the device suitable  for work hot  or cold and its 700-nit 14-inch FHD screen offers excellent  visibility whether inside or outside	Positive	New Projects	45
428		28410	Acer Inc	For those working long days the Enduro N7 comes with dual batteries: one hot-swappable battery with a long 10-hour life and another built-in bridge battery		New Projects	46
429		28410	Acer Inc	In addition to being able  to physically survive chaotic  work environments the Enduro N7 is equipped  with the technology necessary to thrive  in a modern  workplace	Positive	General	43
430		28410	Acer Inc	A quad-core 8th Gen Intel Core i5 CPU offers enough  power to smoothly  navigate between several different applications and work on multiple tasks at the same time	Positive	General	44
431		28410	Acer Inc	The Enduro N7 is also very secure: hardware-level Trusted  Platform Module TPM 20 checks for any signs of intrusion  during startup and the Acer Enduro Manageability Suite AEMS serves to help  protect  the device while also making it easy  to deploy services or system configurations across many devices	Positive	Business Performance	17
432		28410	Acer Inc	Acer Enduro N3 Rugged  Notebook	Positive	Business Performance	18
433		28410	Acer Inc	The Acer Enduro N3 is a powerful  notebook that strikes a balance between durability and portability making it ideal  for users who rotate between several worksites such as architects project inspectors event managers agricultural plant personnel or even lovers of the outdoors who want to record their adventures	Positive	New Projects	47
434		28410	Acer Inc	810G and IP53 certifications while maintaining a thin-and-light frame of just 2485 mm 098 in at 1985 kg 437 lb		New Projects	48
435		28410	Acer Inc	Some of these features include reinforced corners for drops Corning Gorilla Glass to protect  the display from water and the unique  water-resistant Aquafan	Positive	General	45
436		28410	Acer Inc	This physical protection  comes on top  of premium  levels of protection  against cyber threats  thanks to technology like  Discrete Trusted  Platform Module AEMS and password-protected HDDs	Positive	Business Performance	19
437		28410	Acer Inc	13-hour battery life is safe  and this safety does not come at the expense of performance	Positive	Business Performance	20
438		28410	Acer Inc	The Enduro N3 boasts a 10th Gen Intel Core i7 processor and 32 GB of DDR4 RAM giving it reliable  performance with an optional NVIDIA GeForce MX230 discrete GPU and 512 GB PCle Gen3 NVMe SSD for those with exceptionally heavy workloads	Positive	New Projects	49
439		28410	Acer Inc	The Acer Enduro Management Suite AEMS is a system designed to streamline the management of large  quantities of devices helping  to keep existing devices more secure  and speed up the process of rolling new ones out	Positive	Market Expansion	16
440		28410	Acer Inc	I/O Control:		Business Performance	21
441		28410	Acer Inc	The ability to remotely enable/disable access to I/O ports		General	46
442		28410	Acer Inc	Cameras and barcode scanners may also be enabled or disabled 	Negative	General	47
443		28410	Acer Inc	The Acer Enduro T5 ET510-51W is a durable  and rugged  10-inch Windows tablet designed for long periods of work in extreme environments	Positive	New Projects	50
444		28410	Acer Inc	All on top  of MIL-STD 810G and IP65 certifications and AEMS	Positive	General	48
445		28410	Acer Inc	The devices MIL-STD 810G and IP54 certifications combined with an Intel Celeron processor and 64 GB of eMMC storage space make it a reliable  and convenient  option for quick work on the go	Positive	New Projects	51
446		28410	Acer Inc	Android tablet designed especially for smart  retail warehouse and factory workers	Positive	New Projects	52
447		28410	Acer Inc	MIL-STD 810G and IP54 certified the device also features a range of optional accessories and programmable keys that enable  it to be adapted to a variety  of unique  environments	Positive	General	49
448		28410	Acer Inc	Like  this content?	Positive	General	50
449		28410	Acer Inc	Sign up for the free  PCR Daily Digest email service to get the latest tech news straight to your inbox	Positive	General	51
450	Positive	28411	Acer Inc	At Acers online global press conference the company announced significant  new updates to four of its popular  gaming notebooks: the Predator Helios 700 Predator Helios 300 Predator Triton 300 and Nitro 7	Positive	Market Expansion	17
451		28411	Acer Inc	These new refreshed  models bring exciting  updates across the board giving gamers of all levels and types something to look forward  to	Positive	General	52
452		28411	Acer Inc	2070 SUPER  graphics deliver the performance needed to drive fast  displays with high refresh  rates for blur-free seamless  visuals even in the most demanding of AAA games	Positive	General	53
453		28411	Acer Inc	To keep the notebooks operating at peak performance and optimal  temperature Acer has equipped  the notebooks with enhanced  thermal designs new cooling technologies and additional heat pipes	Positive	General	54
454		28411	Acer Inc	The Predator Helios 700 featuring the iconic  sliding HyperDrift keyboard has been upgraded  to include either an overclockable 10th Gen Intel Core i9-10980HK or i7-10875H processor and NVIDIA GeForce	Positive	New Projects	53
455		28411	Acer Inc	RTX 2080 SUPER  or RTX 2070 SUPER  graphics	Positive	New Projects	54
456		28411	Acer Inc	The devices thermal management capabilities have been significantly enhanced  with a new thermal solution called Predator PowerGem included on models with the Intel Core i9 processor	Positive	Market Expansion	18
457		28411	Acer Inc	PowerGem is a special material with 383 times more vertical heat conductivity than copper improving  the notebooks heat emission efficiency 	Positive	Business Performance	22
458		28411	Acer Inc	All models include three copper heat pipes Acer CoolBoost Technology a vapour chamber and two Acer custom-engineered 4th Gen AeroBlade 3D fans 	Positive	New Projects	55
459		28411	Acer Inc	AX1650i wireless and E3100G Ethernet to ensure  that speed-critical applications get bandwidth priority	Positive	Business Risk	7
460		28411	Acer Inc	Fast  PCIe NVMe Solid  State Drives in RAID 0 keep everything lightning fast  and games will roar to life on the Helios	Positive	Market Expansion	19
461		28411	Acer Inc	700s beautiful  173-inch 144 Hz FHD IPS1 display and NVIDIA G-SYNC technology	Positive	New Projects	56
462		28411	Acer Inc	The keyboard which features per-key RGB lighting and anti-ghosting has been updated to include MagTek mechanical switches for the WASD keys and a set of new racing keys which offer increased  precision	Positive	General	55
463		28411	Acer Inc	Designed for racing games they feature a 15 mm of keycap curvature that enables gamers to make finer  and more controlled movements in-game	Positive	New Projects	57
464		28411	Acer Inc	Powerful  Feature Packed Acers	Positive	Market Expansion	20
465		28411	Acer Inc	popular  Predator Helios 300 has raised the bar for gaming notebooks offering the best  performance for the dollar	Positive	General	56
466		28411	Acer Inc	FHD IPS display with 3 ms overdrive the newest  Helios 300 has cemented its reputation  as one of the most powerful  and feature-packed yet affordably-priced gaming notebooks available	Positive	Business Performance	23
467		28411	Acer Inc	It also supports up to 32 GB of 2933 MHz DDR4 memory two PCIe NVMe SSDs in RAID 0 configuration and up to a 2 TB hard  drive delivering the speed and storage necessary to maintain large  libraries of AAA games and movies	Negative	Market Expansion	21
468		28411	Acer Inc	With headphones it provides  an authentic  audio experience letting sounds be heard as they were meant to be whether near or far and has specifically tuned sound modes that are optimized for different game genres strategy RPG or FPS	Positive	General	57
469		28411	Acer Inc	custom-engineered cooling technology ensures that the device runs at an optimal  temperature	Positive	General	58
470		28411	Acer Inc	The notebook features dual fans  including one newly-designed 4th Generation AeroBlade 3D fan that reduces noise  while increasing airflow and Acer CoolBoost which allows manual adjustment of the fans  to ensure  that critical  areas receive continuous cooling	Positive	Business Risk	8
471		28411	Acer Inc	Predator Triton 300 gaming notebook has been refreshed  to include a 10th Gen Intel Core H-series processor up to	Positive	New Projects	58
472		28411	Acer Inc	NVIDIA GeForce RTX 2070 with Max-Q Design graphics and a 240 Hz display refresh  rate	Positive	General	59
473		28411	Acer Inc	The 156-inch FHD IPS display also features a 3 ms response time 300 nit brightness and 100% sRGB spec making it ideal  for both gaming and content creation	Positive	Business Performance	24
474		28411	Acer Inc	It further supports up to three M2 SSDs one PCIe two combos providing an abundance  of storage and the lightning-fast transfer rates and speed that gamers crave	Positive	New Projects	59
475		28411	Acer Inc	Three heat pipes have been added to the devices advanced  thermal design which also includes a dual-fan cooling system one	Positive	New Projects	60
476		28411	Acer Inc	All this performance is housed in a thin  and lightweight metal chassis that measures just 199 mm 078 inches thin  and 21 kg 463 lbs making it easy  to game on the go	Negative	New Projects	61
477		28411	Acer Inc	Nitro 7  Sleek  Metal Design for Gaming on the Go Acers	Positive	New Projects	62
478		28411	Acer Inc	Its sleek  metal chassis measures just 199 mm 078 inches thin  and 25 kg 551 lbs but still manages to pack in a 10th Gen Intel Core H-series processor and up to a GeForce	Negative	New Projects	63
479		28411	Acer Inc	With up to three slots for high-speed M2 SSDs up to 1 TB in RAID 0 configuration up to 32 GB of DDR4 2933 memory Killer  Ethernet E2600 and Intel Wi-Fi 6 game load and response times are incredibly quick	Negative	Market Expansion	22
480		28411	Acer Inc	The Nitro 7s thermal design includes dual fans  a quad exhaust port design and Acer CoolBoost technology adjustable  in NitroSense to increase  fan speed by 10% and CPU/GPU cooling by 9% compared to auto-mode	Positive	New Projects	64
481		28411	Acer Inc	On top  of the performance this makes possible a 156-inch non-glare FHD IPS display with a 144 Hz refresh  rate and 3 ms response allows for sharp  visuals and smooth blur-free gameplay	Positive	General	60
482		28411	Acer Inc	Like  this content?	Positive	General	61
483		28411	Acer Inc	Sign up for the free  PCR Daily Digest email service to get the latest tech news straight to your inbox	Positive	General	62
484	Positive	28457	Siemens AG	The signing of a cooperation  agreement between GREEN Solar Herzogenrath GmbH and Siemens Energy has now marked an important  milestone in achieving this goal	Positive	New Projects	8
485		28457	Siemens AG	The signing of a cooperation  agreement between GREEN Solar Herzogenrath GmbH and Siemens Energy has now marked an important  milestone in achieving this goal	Positive	New Projects	9
486	Negative	28452	Siemens AG	Ralf Thomas told Saturdays edition of the newspaper that the companys financial third quarter which runs April to June will be a big challenge for us as for most other market participants as well  due to the COVID-19 crisis 	Negative	Business Performance	22
487		28452	Siemens AG	However it will not be a bottomless fall  he said adding that the business volume of short-cycle activities had likely contracted by between 10 per cent and 20 per cent in the period	Positive	Business Performance	23
488		28452	Siemens AG	Thomas had said in May he expected a 5 per cent drop in revenue in the financial year ending in September after guiding for moderate sales growth  before the virus outbreak 	Negative	Business Performance	24
489		28452	Siemens AG	He said activity in 2021 would not reach 2019s level across all businesses or regions but said Siemens had a competitive advantage  over rivals in some areas without offering details	Positive	Market Expansion	8
490	Positive	28453	Siemens AG	This order marks the biggest  purchase of rolling stock in the history of the Munich Underground	Positive	Business Performance	25
491	Positive	28461	Welspun Corp	To introduce this revolutionary  range the company has partnered with Australia headquartered HealthGuard Corporation  leaders in tailored non-invasive healthcare products	Positive	Market Expansion	1
492		28461	Welspun Corp	The outbreak of COVID-19 continues to reform the new normal creating a need for items that will become an integral  part of every individuals lives	Positive	Business Risk	1
493		28461	Welspun Corp	Research has indicated that virus  and bacteria can remain active  on textile surfaces for a couple of days as per WHO thus the need for anti-viral home textiles	Negative	Business Risk	2
494		28461	Welspun Corp	Taking cognizance of this and keeping customers safety at the core the company has created an innovative  home textile range that is treated with HealthGuard AMIC technology which has shown outstanding  preliminary results against the Human Strain SARS-CoV-2 virus  COVID-19	Positive	General	1
495		28461	Welspun Corp	HealthGuard AMIC has already proven  9994 percent effectiveness  against Corona Virus combating the spread of harmful viruses through textiles	Positive	Business Performance	1
496		28461	Welspun Corp	Furthermore the anti-viral properties in this technology has high wash durability and can stay active  on treated textiles for minimum 30 domestic washes ensuring long lasting protection  for the consumers	Positive	Business Performance	2
497		28461	Welspun Corp	Authenticated with superior  quality the HealthGuard AMIC technology has been tested as per international test standards such as AATCC:	Positive	New Projects	1
498	Positive	28442	Larsen & Toubro Limited	L&T Finance Holdings LTFS on Friday 3 July said the agreement to sell its 100% stake in L&T Capital Markets Middle East to Proud  Securities and Credits has been terminated as the buyer could not receive regulatory approvals to complete the transaction	Positive	Business Performance	1
499		28442	Larsen & Toubro Limited	LTFS had executed the deal with Proud  Securities and Credits in November 2019	Positive	Business Performance	2
500		28442	Larsen & Toubro Limited	Shares of L&T Finance Holdings declined  217% to Rs 6770 on BSE on Friday 3 July 2020	Negative	Business Performance	3
501		28442	Larsen & Toubro Limited	On the technical front the stocks RSI relative strength  index stood at 56473 on Friday 3 July 2020	Positive	Business Performance	4
502		28442	Larsen & Toubro Limited	L&T Finance Holdings is a leading diversified  non-banking financial company NBFC	Positive	General	1
503	Positive	28447	Reliance Industries	Intel Capital has an outstanding  record of being a valuable  partner for leading technology companies globally	Positive	General	19
504		28447	Reliance Industries	We are therefore excited  to work together with Intel to advance Indias capabilities in cutting-edge technologies that will empower  all sectors of our economy said Mukesh Ambani chairman and managing director Reliance Industries Ltd Jio	Positive	General	20
505		28447	Reliance Industries	Platforms focus on applying its impressive  engineering capabilities to bring the power of low-cost digital services to India aligns with Intels purpose of delivering breakthrough  technology that enriches	Positive	Market Expansion	2
506	Positive	28451	Reliance Industries	Reliance Industries Ltd RELINS said on Friday that Intel Corp INTCO would buy  a 039% stake in its digital unit Jio Platforms for 1895 billion rupees $25355 million	Positive	Business Performance	40
507	Positive	28443	BEL Ltd	The Central government under National Smart  Cities Mission included Aizawl within its ambit on June 25 2017	Positive	Business Risk	1
508		28443	BEL Ltd	The aim was to develop the citys water supply health education sewage systems and facilities including street lighting traffic transportation motor parking facilities etc and thereby transforming the city to be Smart  City	Positive	Market Expansion	1
509		28443	BEL Ltd	Accordingly a state-level high-powered committee has been formed under the leadership of the chief secretary for the successful  implementation of the Smart  City project	Positive	New Projects	1
510		28443	BEL Ltd	The Aizawl Smart  City Limited ASCL Board of directors has also formed under the UD&PA secretary	Positive	General	1
511		28443	BEL Ltd	As per the instruction of Ministry of Urban and Housing Affairs the System integrator for implementation of integrated  Command and Control  Centre ITMS and City surveillance system at Aizawl has also been allotted by nomination to Bharat Electronics Limited BEL	Positive	New Projects	2
512		28443	BEL Ltd	BELs overall performance in smart  cities across the country and in surveillance-related work in particular has been very poor  and questionable and can be termed unprofessional said a source	Negative	Business Risk	2
513		28443	BEL Ltd	BEL has been using substandard  Chinese material in networking hardware camera technology	Negative	Business Risk	3
514		28443	BEL Ltd	The source added that in many cases the fairness  of the tender  process has also been questioned as to how they have decided on certain OEMs etc and are deemed to be partial in favouring certain set of OEMs	Positive	Business Risk	4
515		28443	BEL Ltd	The source added that BEL was recently served with the notice of termination by Belagavi Smart  City with charges of unreasonable delay  in payment to the vendors of their dues; for not being able  to deploy their ICCC platform and inability  to integrate to be used either by administration and citizens Such allegation  is also raised by Delhi government like delay  and using substandard  Chinese material and technology in their implementation of Delhi CCTV	Negative	Business Risk	5
516		28443	BEL Ltd	BEL so far has been a failure as far as it comes to smart  city implementation	Positive	Business Risk	6
517		28443	BEL Ltd	Recently March BEL signed a contract of R 10102 crore with Mizoram government for Aizawl smart  city on nomination basis	Positive	New Projects	3
518		28443	BEL Ltd	Subsequently BEL has issued a tender  for bidding on June 13 2020 which is already surrounded by controversies	Positive	Business Risk	7
519	Positive	28444	Reliance Industries	New Delhi: After raising billions of dollars from the likes  of Facebook and Intel for its digital business billionaire Mukesh Ambanis Reliance Industries has launched JioMeet video conferencing app with unlimited free  calling that is being seen as rate war on rival  Zoom	Positive	General	21
520		28444	Reliance Industries	According to the company website JioMeet supports HD audio and video call quality with up to 100 participants and offers features like  screen sharing meeting schedule feature and more	Positive	General	22
521		28444	Reliance Industries	But unlike Zoom it does not impose  a 40-minute time limit	Positive	Business Performance	41
522		28444	Reliance Industries	Based on USD 15 per month charge for meetings of more than 40 minutes on Zoom USD 180 on annual basis JioMeet is providing the same functionality and more free  of cost translating into Rs 13500 savings  for a host per year company sources said	Positive	Business Performance	42
523		28444	Reliance Industries	According to app features listed on Google Play Store JioMeet offers easy  sign up with either mobile number or e-mail ID and allows creation of instant meeting	Positive	New Projects	12
524		28444	Reliance Industries	Each meeting is password protected and the host can enable  Waiting Room to ensure  no participant joins without permission	Positive	General	23
525		28444	Reliance Industries	Other features include Safe  Driving Mode while driving multi-device login support for up to five devices and seamless switching from one device to other while on call	Positive	General	24
526		28444	Reliance Industries	The app which has already seen more than 5 lakh downloads on the Google Play Store and iOS comes amid the government imposing  a ban on 59 popular  Chinese apps including TikTok on grounds that they threatened national security and data privacy	Negative	Business Risk	5
527		28444	Reliance Industries	Company sources said no restriction  on time limit on JioMeet means teachers will not be required to cut short their classes as they are forced  to do on Zoom	Positive	Business Risk	6
528		28444	Reliance Industries	Also JioMeet has two advanced  meeting settings over and above Zoom options	Positive	New Projects	13
529		28444	Reliance Industries	If enabled only users from the hosts organsation can join that meeting eliminating potential  snoops from other IDs	Positive	General	25
530		28444	Reliance Industries	JioMeet allows nine active  participants on a single mobile screen	Positive	General	26
531	Negative	28445	Reliance Industries	Zoom one of the few success  stories of the Covid-19 pandemic now faces a new competitor in an app backed by Asias wealthiest person Mukesh Ambani	Positive	General	27
532		28445	Reliance Industries	Like  Google Meet Microsoft Teams and other services JioMeet offers unlimited high-definition calls  but unlike Zoom it doesnt impose  a 40-minute time limit	Negative	New Projects	14
533		28445	Reliance Industries	The launch coincided with a nationwide ban on dozens of popular  apps from Chinese technology giants including ByteDance Ltds TikTok and Alibaba Group Holding Ltds UC Web on grounds they threatened security and data privacy	Positive	Business Risk	7
534		28445	Reliance Industries	The app is one facet of Ambanis rapidly expanding  digital empire which includes Indias largest  telecom operator with nearly 400 million users	Positive	New Projects	15
535		28445	Reliance Industries	Like  elsewhere video conferencing apps have become lifelines for millions of Indians working in cramped  homes during Covid-19 lockdowns	Negative	General	28
536		28445	Reliance Industries	JioMeet is also debuting at a time Zoom users have accused the service of security flaws 	Negative	Business Risk	8
537	Positive	28446	Reliance Industries	After raising billions of dollars from the likes  of Facebook and Intel for its digital business billionaire Mukesh Ambanis Reliance Industries has launched JioMeet video conferencing app with unlimited free  calling that is being seen as a rival  to Zoom	Positive	General	29
538		28446	Reliance Industries	According to the company website JioMeet supports HD audio and video call quality with up to 100 participants and offers features like  screen sharing meeting schedule feature and more	Positive	General	30
539		28446	Reliance Industries	But unlike Zoom it does not impose  a 40-minute time limit	Positive	Business Performance	43
540		28446	Reliance Industries	While Zoom charges $15 per month charge for meetings of more than 40 minutes $180 on annual basis JioMeet is providing the same functionality and more free  of cost translating into Rs 13500 savings  for a host per year company sources said	Positive	Business Performance	44
541		28446	Reliance Industries	According to app features listed on Google Play Store JioMeet offers easy  sign up with either mobile number or e-mail ID and allows creation of instant meeting	Positive	New Projects	16
542		28446	Reliance Industries	Each meeting is password protected and the host can enable  Waiting Room to ensure  no participant joins without permission	Positive	General	31
543		28446	Reliance Industries	Other features include Safe  Driving Mode while driving multi-device login support for up to five devices and seamless  switching from one device to other while on call	Positive	General	32
544		28446	Reliance Industries	The app which has already seen more than five lakh downloads on the Google Play Store and iOS comes amid the government imposing  a ban on 59 popular  Chinese apps including TikTok on grounds that they threatened national security and data privacy	Negative	Business Risk	9
545		28446	Reliance Industries	Company sources said no restriction  on time limit on JioMeet means teachers will not be required to cut short their classes as they are forced  to do on Zoom	Positive	Business Risk	10
546		28446	Reliance Industries	Also JioMeet has two advanced  meeting settings over and above Zoom options	Positive	New Projects	17
547		28446	Reliance Industries	If enabled only users from the hosts organsation can join that meeting eliminating potential  snoops from other IDs	Positive	General	33
548		28446	Reliance Industries	JioMeet allows nine active  participants on a single mobile screen	Positive	General	34
549	Negative	28449	Reliance Industries	Amid the deadly coronavirus outbreak  and crisis global rating agency - Moody  has rated Tata Consultancy Services TCS Infosys and Reliance Industries RIL above the sovereign	Negative	Business Risk	11
550		28449	Reliance Industries	They have also cited them as strong  financials and significant  global earnings	Positive	Business Performance	45
551		28449	Reliance Industries	While Reliance Industries has been rated one notch above Indias sovereign rating due to diversified  business and balanced  funding	Positive	Business Performance	46
552		28449	Reliance Industries	As per Business Today report earlier last month Moodys Investors Service had downgraded  Indias sovereign rating by one notch to Baa3 from Baa2	Negative	Business Performance	47
553		28449	Reliance Industries	They cited that there will be challenges in implementation of policies of a sustained  period of low growth  deteriorating  fiscal position and stress  in the financial sector	Negative	Business Performance	48
554		28449	Reliance Industries	Meanwhile the global rating agency had lowered TCS rating to Baa1 negative  from A3 negative  in wake of downgrade  of Indias sovereign rating	Negative	Business Performance	49
555		28449	Reliance Industries	While Infosys rating to Baa1 negative  from A3 negative  which is unlikely to be upgraded  unless Indias rating is upgraded 	Negative	Business Performance	50
556	Negative	28450	Reliance Industries	Zoom one of the few success  stories of the Covid-19 pandemic now faces a new competitor in an app backed by Asias wealthiest person Mukesh Ambani	Positive	General	35
557		28450	Reliance Industries	Like  Google Meet Microsoft Teams and other services JioMeet offers unlimited high-definition calls  but unlike Zoom it doesnt impose  a 40-minute time limit	Negative	New Projects	18
558		28450	Reliance Industries	The launch coincided with a nationwide ban on dozens of popular  apps from Chinese technology giants including ByteDance Ltds TikTok and Alibaba Group Holding Ltds UC Web on grounds they threatened security and data privacy	Positive	Business Risk	12
559		28450	Reliance Industries	The app is one facet of Ambanis rapidly expanding  digital empire which includes Indias largest  telecom operator with nearly 400 million users	Positive	New Projects	19
560		28450	Reliance Industries	Like  elsewhere video conferencing apps have become lifelines for millions of Indians working in cramped  homes during Covid-19 lockdowns	Negative	General	36
561		28450	Reliance Industries	JioMeet is also debuting at a time Zoom users have accused the service of security flaws 	Negative	Business Risk	13
562		28450	Reliance Industries	For the best  reports & opinion on politics governance and more subscribe to ThePrint on Telegram	Positive	General	37
563	Negative	28456	Siemens AG	Im catching up more on Siemens RealizeLIVE and today I want to talk about flexibility  and customization	Positive	Market Expansion	9
564		28456	Siemens AG	Flexibility  is one of the key characteristics of PLM technologies and products	Positive	General	5
565		28456	Siemens AG	Without such features and capabilities many PLM implementations will be dead  on arrival	Negative	General	6
566		28456	Siemens AG	Out of the box systems always played the role of excellent  marketing but when the rubber was hitting the road flexibility  was the key	Positive	Market Expansion	10
567		28456	Siemens AG	Siemens announced that it has acquired  Mendix the popular  low-code application development platform for 06 billion or about $700 million about two years ago and since then Mendix plays a key role in Siemens strategy of developing custom application and customization	Positive	New Projects	10
568		28456	Siemens AG	My attention was caught  by the following slide explaining the strategy of Teamcenter integration	Negative	General	7
569		28456	Siemens AG	From my earlier article of comparison between Teamcenter and Teamcenter X I learned that Teamcenter doesnt have cloud  services	Negative	General	8
570		28456	Siemens AG	However Teamcenter X has cloud  services	Negative	General	9
571		28456	Siemens AG	Or maybe Teamcenter X cloud  services is Mendix platform?	Negative	General	10
572		28456	Siemens AG	What is included in cloud  services?	Negative	General	11
573		28456	Siemens AG	Another slide with the example of big integration gives even more ideas and triggered more questions about how Teamcenter will be integrated  and customized	Positive	New Projects	11
574		28456	Siemens AG	Flexibility  and customization are a matter of life and death  for PLM implementation	Negative	General	12
575		28456	Siemens AG	While connectors are almost a standard way for integration business the devil  is in the details	Negative	Market Expansion	11
576		28456	Siemens AG	How easy  to create an integration using all these layers?	Positive	New Projects	12
577		28456	Siemens AG	Will REST API be available for customizing Teamcenter X and what will be the scope of supported  functions?	Positive	General	13
578		28456	Siemens AG	Without knowing the answers it is hard  to make an assessment of how Teamcenter X will survive the modern  SaaS eco-system for openness  and integration	Positive	General	14
579		28456	Siemens AG	Best  Oleg Disclaimer: Im co-founder and CEO of OpenBOM developing cloud  based bill of materials and inventory management tool for manufacturing companies hardware startups and supply chain	Negative	General	15
580		28456	Siemens AG	My opinion can be unintentionally biased 	Negative	Business Performance	26
581	Negative	28458	Tata Steel	Tata Steel did not say whether there would be a voluntary redundancy programme but said it would now extend its current jobs pact for IJmuiden which stipulates no forced  layoffs by five years until October 2026AMSTERDAM: Workers at Tata Steels main plant in the Netherlands ended a three-week strike  on Friday after the company said there would be no compulsory layoffs under a planned reorganisation of its Dutch operations	Negative	Business Performance	9
582		28458	Tata Steel	We are pleased  to announce we have reached an agreement with all unions involved Tata Steels Dutch division said in a statement	Positive	Business Performance	10
583		28458	Tata Steel	The transformation programme will not lead to forced  redundancies at Tata Steel Netherlands	Positive	Business Performance	11
584		28458	Tata Steel	The company did not say whether there would be a voluntary redundancy programme but said it would now extend its current jobs pact for IJmuiden which stipulates no forced  layoffs by five years until October 2026Workers at the IJmuiden plant went on strike  on June 10 after unions said the company had outlined plans to scrap  around 1000 of the 9000 jobs at the site as part of a reorganisation of its European operations	Negative	Business Risk	10
585		28458	Tata Steel	Tata Steel Europe has said IJmuiden needs to become more profitable as the steel sector grappled with the effects of overcapacity cheap  Chinese imports and US trade tariffs even before the global coronavirus recession  hit	Negative	Business Performance	12
586		28458	Tata Steel	Under the agreement reached with unions Tata also promised  to invest in innovation  and cleaner  production technologies and not to quickly divest any part of its Dutch activities or to outsource work done in the Netherlands	Positive	Business Performance	13
587		28458	Tata Steel	Also Read: Government assures measures to reduce  logistics cost for steel players	Positive	General	1
588	Negative	28439	JSW Steel Ltd	The average capacity utilisation dropped to 76% in June 2020 primarily due to a fall  in production at Vijayanagar Works	Negative	Business Performance	9
589		28439	JSW Steel Ltd	At Vijayanagar Works certain employees tested Covid-19 positive started with an employee who had travelled far away from plant premises on personal work and got infected 	Negative	General	2
590		28439	JSW Steel Ltd	This has led  to not only hospitalisation of these employees and an active contact tracing and quarantining of their primary and secondary contacts but also imposition  of restrictions by the local administration on the entry and exit of employees at the plant location	Negative	General	3
591		28439	JSW Steel Ltd	The Company responded promptly  and responsibly to control  the spread of Covid-19 infection  among our workforce and local communities by implementing and intensifying comprehensive prevention  and mitigation  measures by leveraging on our existing medical infrastructure and community outreach programme	Positive	General	4
592		28439	JSW Steel Ltd	The Company identified the workforce including those who resided outside township premises critical  for operation of the plant and made arrangements to accommodate all of them within the townships premises thus completely restricting the movement of personnel into and out of factory premises	Negative	General	5
593		28439	JSW Steel Ltd	It is also heartening to see that a majority of such infected  employees have also recovered since	Negative	General	6
594		28439	JSW Steel Ltd	The operations are now stabilising with reduced employee strength 	Positive	General	7
595		28439	JSW Steel Ltd	The Company has been declared as the Preferred  Bidder for four iron ore mines in the State of Odisha in the Auctions held by the State Government in February 2020	Positive	New Projects	2
596		28439	JSW Steel Ltd	The Govt of Odisha has issued vesting orders in respect  of these mining blocks viz:-Nuagaon Narayanposhi Jajang and Ganua by virtue of which all valid rights approvals clearances licenses and the like vested with the previous Lessees have been deemed to have been acquired  by the Company	Positive	Business Performance	10
597	Positive	28441	Larsen & Toubro Limited	L&T Financial Services LTFS has completed the execution of the share purchase agreement to sell its 100% stake in L&T Capital Markets Middle East to Proud  Securities and Credits	Positive	Business Performance	5
598		28441	Larsen & Toubro Limited	14 Novemebr 2019 L&T Financial Services LTFS had informed  the exchanges regarding its decision to exit wealth management business	Positive	Business Performance	6
599		28441	Larsen & Toubro Limited	On 28 August 2019 the company entered into a definitive  agreement for the sale of 100% of its equity shareholding of L&T Capital Markets LTCM a wholly owned subsidiary to IIFL Wealth Group IIFL Wealth	Positive	Business Performance	7
600		28441	Larsen & Toubro Limited	LTCM provides  wealth management services for individual and institutional clients in India	Positive	General	2
601		28441	Larsen & Toubro Limited	LTFS had initiated the share purchase agreement to sell 100% stake of LTCM ME to Proud  Securities and Credits last year	Positive	Business Performance	8
602		28441	Larsen & Toubro Limited	On the technical front the stocks RSI relative strength  index stood at 56473 on Friday 3 July 2020	Positive	Business Performance	9
603		28441	Larsen & Toubro Limited	Traditionally the RSI is considered overbought  when above 70 and oversold  when below 30The stock was trading between its 50-day moving average DMA placed at 6093 and its 200-day moving average DMA placed at 8933L&T Finance Holdings consolidated net profit skid 303% to Rs 38486 crore on 13% rise in total income to Rs 342722 crore in Q4 March 2020 over Q4 March 2019L&T	Negative	Business Performance	10
604		28441	Larsen & Toubro Limited	Finance Holdings is a leading diversified  non-banking financial company NBFCShares of L&T Finance Holdings declined  217% to close at Rs 6770 on BSE on Friday 3 July 2020	Negative	Business Performance	11
605	Positive	28429	Eaton Corp	The modular  SBX advanced  steering valve maximizes design flexibility  for OEMs June 30 2020 EDEN PRAIRIE Minn Power management company Eaton today announced the production launch of its SBX advanced  steering valve a fail-operational steer-by-wire valve for off-highway machinery	Positive	Market Expansion	1
606		28429	Eaton Corp	The compact modular  SBX valve increases machine flexibility  and intelligence by enabling machine designers to tailor steering performance to the operators preferences and operating conditions	Positive	Business Performance	1
607		28429	Eaton Corp	Fail-operational functionality is achieved by mounting the SBX valve to a secondary electrohydraulic valve or manifold		New Projects	1
608		28429	Eaton Corp	no hydraulic connection to the cab the valve can be remotely mounted allowing for more flexible  machine design and reduced cab noise 	Negative	General	1
609		28429	Eaton Corp	The valve can be paired with the original equipment manufacturers OEMs machine control  system or with an Eaton controller further increasing design flexibility 	Positive	New Projects	2
610		28429	Eaton Corp	The valves modular  design and fail-operational capability  empower  engineers to create unique  cab environments while enhancing machine productivity and safety The SBX advanced  steering valve is SIL 2 and PLd capable  which enables OEMs to develop machinery that complies with international standards	Positive	Market Expansion	2
611		28429	Eaton Corp	Designed for equipment in the construction agriculture material handling and forestry industries the valve is ideal  for use with systems incorporating multiple steering wheels or alternative devices such as a joystick or lever	Positive	Market Expansion	3
612		28429	Eaton Corp	For more information about the Eaton SBX advanced  steering valve visit Eatoncom/SBX	Positive	Business Performance	2
613		28429	Eaton Corp	Eatons mission is to improve  the quality of life and the environment through the use of power management technologies and services	Positive	General	2
614		28429	Eaton Corp	We provide  sustainable  solutions that help  our customers effectively  manage electrical hydraulic and mechanical power	Positive	Business Performance	3
615	Negative	28435	Jaypee Group	Debt-ridden Jaiprakash Associates on Saturday informed  that its Managing Director Cement Sunny Gaur has resigned  from the company	Negative	General	1
616		28435	Jaypee Group	The board of directors has accepted the resignation  tendered by Gaur citing personal reasons said Jaiprakash Associates in a regulatory update	Negative	Business Performance	1
617		28435	Jaypee Group	The Board of Directors has by resolution passed through circulation on July 4 2020 accepted the resignation  of Sunny Gaur as tendered by him due to certain personal reasons from the office of Director/Whole-time Director designated as Managing Director Cement with effect from the date of passing of the Resolution it said	Negative	General	2
618		28435	Jaypee Group	Earlier the group has sold its major cement facilities to Aditya Birla Group firm UltraTech Cement to reduce  its debt	Positive	Business Performance	2
619	Positive	28433	Indian Oil Corp Ltd	During his tenure as Director Refineries and earlier as Executive Director Refinery Operations at IndianOil Vaidya presided over several refinery expansion  and petrochemical projects	Positive	New Projects	4
620		28433	Indian Oil Corp Ltd	He also steered the rollout of BS-VI grade auto fuels across the country commenced  supply of IMO-compliant bunker fuel 05% Sulphur and a special winter-grade diesel for the high-altitude regions of the Himalayas and expanded  the corporations green energy offerings with projects related to biofuels and 2G/3G ethanol-blended fuels at its refineries	Positive	New Projects	5
621		28433	Indian Oil Corp Ltd	He has had a decade-long association with Indias largest  cracker plant - the Panipat Naphtha Cracker Complex  a major driver of IndianOils petrochemicals business	Negative	General	1
622	Negative	28434	Indian Oil Corp Ltd	A special winter-grade diesel Indian Oil Corporation IOC has launched just for the Ladakh region will prove to be a lifeline for the Indian armed forces keeping in view the prospect that the coming winter will be very tense  for them because of the India-China conflict 	Negative	Business Risk	1
623		28434	Indian Oil Corp Ltd	With army movements increasing the demand for this fuel is expected to increase  multifold over 350 tonnes last winter said a company source	Positive	Business Performance	4
624		28434	Indian Oil Corp Ltd	Upping the ante against Chinese aggression Prime  Minister Narendra Modi made a surprise visit to the forward  position of Nimu in Ladakh on Friday with Chief of Defence Staff General Bipin Rawat and Army Chief M M Naravane	Positive	General	2
625		28434	Indian Oil Corp Ltd	In a violent clash  between soldiers of the two countries at Galwan on June 15 at least 20 Army persons on the Indian side died 	Negative	Business Risk	2
626		28434	Indian Oil Corp Ltd	The IndianOil executive said looking at the current situation the company had stoked up enough  winter-grade fuel for the region	Positive	Business Risk	3
627		28434	Indian Oil Corp Ltd	: Enemies  saw fire and fury  of our soldiers says PM Modi On November 19 last year Union Home Minister Amit Shah had launched the special fuel for Ladakh soon after the region separated from Jammu and Kashmir on October 31 and became a Union Territory	Negative	Business Risk	4
628		28434	Indian Oil Corp Ltd	In these regions motorists face the problem  of freezing  diesel during the winter season	Negative	Business Risk	5
629		28434	Indian Oil Corp Ltd	Normally a major component of diesel is paraffin wax which improves  viscosity and lubrication in the fuel	Positive	New Projects	6
630		28434	Indian Oil Corp Ltd	However with temperature it melts or thickens affecting  the normal performance of vehicles	Negative	Business Performance	5
631		28434	Indian Oil Corp Ltd	IOC had launched this special fuel to address the problem  including additives to diesel helping  it to remain in a fluid situation	Negative	Business Risk	6
632		28434	Indian Oil Corp Ltd	This fuel has a low pour-point of minus 33 degree Celsius which allows it to retain its fluidity even in extremely cold  weather	Negative	Business Performance	6
633		28434	Indian Oil Corp Ltd	To ensure  cooking gas supply to the region IOC runs an LPG-bottling plant in Phey Village of Ladakh which is 11800 feet above the sea level	Positive	New Projects	7
634		28434	Indian Oil Corp Ltd	With a capacity of 8000 tonnes tmt per month it came to limelight as women comprise more than half the staff strength  of 20 braving the temperature of minus 30 degree Celsius	Positive	Business Performance	7
635	Negative	28436	Jaypee Group	Debt-ridden Jaiprakash Associates on Saturday informed  that its Managing Director Cement Sunny Gaur has resigned  from the company	Negative	General	3
636		28436	Jaypee Group	The board of directors has accepted the resignation  tendered by Gaur citing personal reasons said Jaiprakash Associates in a regulatory update	Negative	Business Performance	3
637		28436	Jaypee Group	The Board of Directors has by a resolution passed through circulation on July 4 2020 accepted the resignation  of Sunny Gaur as tendered by him due to certain personal reasons from the office of Director/Whole-time Director designated as Managing Director Cement with effect from the date of passing of the Resolution it said	Negative	General	4
638		28436	Jaypee Group	Earlier the group has sold its major cement facilities to Aditya Birla Group firm UltraTech Cement to reduce  its debt	Positive	Business Performance	4
639		28436	Jaypee Group	In 2017 UltraTech Cement has completed the Rs 16189 crore acquisition of Jaiprakash Associates six integrated  cement plants and five grinding units having a capacity of 212 million tonne	Positive	Market Expansion	1
640	Negative	28437	JSW Cement Ltd	JSW Cement Managing Director Parth Jindal on Thursday said its family-owned group will bring down $400 million worth  of imports from China to zero in the next 24 months	Positive	Business Performance	1
641		28437	JSW Cement Ltd	The group will boycott  goods worth  $400 million which it imports from China annually Parth said in a tweet	Negative	Business Performance	2
642		28437	JSW Cement Ltd	The unprovoked attack  by the Chinese on Indian soil on our brave jawaans has been a huge wake up call and a clarion call for action -- we @TheJSWGroup have a net import of USD 400 mn from China annually and we pledge to bring this down to zero in the next 24 months #BoycottChina he said	Negative	Business Risk	1
643		28437	JSW Cement Ltd	The Indian and Chinese armies are locked in a bitter  stand-off at multiple locations in the eastern Ladakh for the past seven weeks and the tension escalated manifold after 20 Indian soldiers were killed  in a violent clash  in Galwan Valley on June 15	Negative	Business Risk	2
644		28437	JSW Cement Ltd	The Chinese side also suffered  casualties but it is yet to give out the details	Negative	Business Performance	3
645	Neutral	28438	JSW Steel Ltd	The company said its average capacity utilisation dropped to 76 per cent in June due to a fall  in production at Vijayanagar works as certain employees tested COVID-19 positive 	Negative	Business Performance	11
646		28438	JSW Steel Ltd	JSW Steel said it has been declared as the preferred  bidder for four iron ore mines in Odisha after the auctions held by the state government in February	Positive	Business Performance	12
647	Positive	28402	Acer Inc	Kolkata : Acer today launched Enduro its new line of rugged  notebooks and tablets specially designed to provide  the durability portability and performance needed by professionals working in the field	Positive	New Projects	65
648		28402	Acer Inc	First responders and industrial manufacturing workers will find the Acer Enduro N7 to be a reliable  companion while event producers and outdoor hobbyists will appreciate  the thin-and-light yet durable  Enduro N3	Positive	New Projects	66
649		28402	Acer Inc	With an increasingly modern  workforce more and more mobile devices are being deployed in the field where they are subject to harsher handling	Positive	General	63
650		28402	Acer Inc	Enduro our new line of rugged  notebooks and tablets was created to provide  our customers with the durability and performance that gets the job done said Andrew Chuang General Manager Rugged  Computing Acer Inc Acer Enduro N7 Rugged  Notebook	Positive	New Projects	67
651		28402	Acer Inc	The Acer Enduro N7 is a rugged  notebook constructed with shock-absorbent materials to offer the reliability needed by first responders field and industrial manufacturing workers while on the job	Positive	Business Risk	9
652		28402	Acer Inc	MIL-810G and IP65 certified[i] the device has been engineered to withstand drops onto the hardest flooring and to resist the ingress of dust  and water	Negative	New Projects	68
653		28402	Acer Inc	This durability makes the device suitable  for work hot  or cold and its 700-nit 14-inch FHD screen offers excellent  visibility whether inside or outside	Positive	New Projects	69
654		28402	Acer Inc	For those working long days the Enduro N7 comes with dual batteries: one hot-swappable battery with a long 10-hour[ii] life and another built-in bridge battery		New Projects	70
655		28402	Acer Inc	In addition to being able  to physically survive chaotic  work environments the Enduro N7 is equipped  with the technology necessary to thrive  in a modern  work place	Positive	General	64
656		28402	Acer Inc	A quad-core 8th Gen Intel Core i5 CPU offers enough  power to smoothly  navigate between several different applications and work on multiple tasks at the same time	Positive	General	65
657		28402	Acer Inc	The Enduro N7 is also very secure: hardware-level Trusted  Platform Module TPM 20 checks for any signs of intrusion  during startup and the Acer Enduro Manageability Suite AEMS serves to help  protect  the device while also making it easy  to deploy services or system configurations across many devices	Positive	Business Performance	25
658		28402	Acer Inc	Acer Enduro N3 Rugged  Notebook	Positive	Business Performance	26
659		28402	Acer Inc	The Acer Enduro N3 is a powerful  notebook that strikes a balance between durability and portability making it ideal  for users who rotate between several worksites such as architects project inspectors event managers agricultural plant personnel or even lovers of the outdoors who want to record their adventures	Positive	New Projects	71
660		28402	Acer Inc	The Enduro N3 was specially engineered to be resistant to drops and water achieving MIL-STD 810G and IP53[iii] certifications while maintaining a thin-and-light frame of just 2485 mm 098 in at 1985 kg 		New Projects	72
661		28402	Acer Inc	Some of these features include reinforced corners for drops Corning Gorilla Glass to protect  the display from water and the unique  water-resistant Aquafan	Positive	General	66
662		28402	Acer Inc	This physical protection  comes on top  of premium  levels of protection  against cyber threats  thanks to technology like  Discrete Trusted  Platform Module AEMS and password-protected HDDs	Positive	Business Performance	27
663		28402	Acer Inc	life2 is safe  and this safety does not come at the expense of performance	Positive	General	67
664		28402	Acer Inc	The Enduro N3 boasts a 10th Gen Intel Core i7 processor and 32 GB of DDR4 RAM giving it reliable  performance with an optional NVIDIA GeForce MX230 discrete GPU and 512 GB PCle Gen3 NVMe SSD for those with exceptionally heavy workloads	Positive	New Projects	73
665		28402	Acer Inc	The Acer Enduro Management Suite AEMS is a system designed to streamline the management of large  quantities of devices helping  to keep existing devices more secure  and speed up the process of rolling new ones out	Positive	Market Expansion	23
666		28402	Acer Inc	I/O Control:		Business Performance	28
667		28402	Acer Inc	The ability to remotely enable/disable access to I/O ports [iv] 		General	68
668		28402	Acer Inc	Cameras and barcode scanners may also be enabled or disabled  	Negative	General	69
669		28402	Acer Inc	Cameras and barcode scanners may also be enabled or disabled 	Negative	General	70
670		28402	Acer Inc	The Acer Enduro T5 ET510-51W is a durable  and rugged  10-inch Windows tablet designed for long periods of work in extreme environments	Positive	New Projects	74
671		28402	Acer Inc	All on top  of MIL-STD 810G and IP65 certifications and AEMS	Positive	General	71
672		28402	Acer Inc	The devices MIL-STD 810G4 and IP54 certifications combined with an Intel Celeron processor and 64 GB of eMMC storage space make it a reliable  and convenient  option for quick work on the go	Positive	New Projects	75
673		28402	Acer Inc	Android tablet designed especially for smart  retail warehouse and factory workers	Positive	New Projects	76
674		28402	Acer Inc	MIL-STD 810G[v] and IP54 certified the device also features a range of optional accessories and programmable keys that enable  it to be adapted to a variety  of unique  environments	Positive	General	72
675	Positive	28403	Acer Inc	:Acer today announced a new suite of premium  notebooks desktops and monitors to expand its ConceptD line a series of powerful  devices specifically designed for creators	Positive	General	73
676		28403	Acer Inc	The ConceptD Series includes a variety  of devices to suit the creative  needs of professionals across the board from design students and YouTube enthusiasts to CAD designers video editors illustrators and animators	Positive	Business Performance	29
677		28403	Acer Inc	Powerful  enough  to handle medium-size to complex  CAD work with speed and accuracy the ConceptD 3 Ezel and ConceptD 3 notebook ranges make display and powerful  graphics specifications a priority	Positive	Business Performance	30
678		28403	Acer Inc	They come with a thinner  and lighter  look with both the clamshell and convertible form factors having 14- and 156-inch screens so they can be used to edit and showcase work on the move	Positive	New Projects	77
679		28403	Acer Inc	The innovative  ConceptD 3	Positive	New Projects	78
680		28403	Acer Inc	Ezel is a convertible notebook designed to give creators the most intuitive  experience possible	Positive	General	74
681		28403	Acer Inc	Its amber-backlit keys are set against a pristine white all-metal chassis and a luxuriously large  glass trackpad that supports multi-finger gestures	Positive	New Projects	79
682		28403	Acer Inc	innovative  Ezel hinge makes the device as versatile  as it is elegant  empowering users with the ability to switch between six usage modes such as stand mode for drawing content or display mode for presenting it	Positive	Business Performance	31
683		28403	Acer Inc	Other usage modes include an adjustable  float mode traditional laptop mode pad mode and share mode	Positive	Business Performance	32
684		28403	Acer Inc	On top  of 18 hours of battery life1 the devices creative  toolbox includes programmable keys and a suite of connectivity options such as a SD card 70 reader and USB Type-C Thunderbolt 3 port while weighing just 168 kg 14 37 lbs or 195 kg 15 429 kg	Positive	New Projects	80
685		28403	Acer Inc	This lifelike display is perfect  for drawing with Acers	Positive	Business Risk	10
686		28403	Acer Inc	Active  Stylus featuring 4096 levels of pressure sensitivity and artists can make use of float mode to find their ideal  drawing angle	Positive	General	75
687		28403	Acer Inc	This means that the notebook is powerful  enough  to handle not only drawing or sketching but also animation and 3D modelingall at 40 dBA or quieter	Positive	Business Performance	33
688		28403	Acer Inc	3 Notebook  Freedom  in Creation	Positive	Business Performance	34
689		28403	Acer Inc	Ideal for those who prefer  traditional clamshell form factors 20 hours of battery life[i] gives creators the flexibility to edit and showcase their work wherever they happen to be	Positive	General	76
690		28403	Acer Inc	Powered by NVIDIA Quadro T1000 ConceptD 3 Pro or GeForce GTX 1650Ti GPUs and the new 10th Gen Intel Core H-series processors it is specifically designed to handle all 2D or 3D color-critical design work on a 14- or 156-inch FHD PANTONE Validated display		New Projects	81
691		28403	Acer Inc	The ConceptD 100 desktop is ideal  for graphics-intensive 2D design and entry-level 3D CAD modeling addressing the specific needs of professional creators and multimedia classrooms	Positive	Business Risk	11
692		28403	Acer Inc	The ConceptD 100 desktop is equipped  with a powerful  9th Gen Intel Core processor and an NVIDIA GeForce or Quadro GPU allowing 2D and light-duty 3D creators to accelerate  quickly and reliably  through tasks and workflows	Positive	New Projects	82
693		28403	Acer Inc	This small form factor PC comes with up to 256 GB of ultrafast SSD storage all-around connectivity and 32 GB of DDR4 RAM which allows creators to make simultaneous use of all essential  applications without delay 	Positive	New Projects	83
694		28403	Acer Inc	Its front air intake and side-ventilation keep the mini workstation cool and ensure  that its noise  levels stay under 40 dBA the equivalent of a library room	Negative	Business Performance	35
695		28403	Acer Inc	It blends features with style coming in an elegant  off-white curved design that fits perfectly  into any modern  office or workspace	Positive	Market Expansion	24
696		28403	Acer Inc	 Breathtaking  Accurate  Visuals	Positive	Business Performance	36
697		28403	Acer Inc	The ConceptD CP5 and ConceptD CP3 series of monitors are aimed at professional computer graphics creators video editors and animators who require a high-performance monitor with outstanding  color accuracy and reliable  compatibility	Positive	Business Risk	12
698		28403	Acer Inc	Both monitor lines are designed for those who seek resolution color accuracy and a wide color gamut the ability to work with HDR content high refresh  rates for blur-free images and a large  screen to facilitate  the design process and support collaboration	Positive	Business Risk	13
699		28403	Acer Inc	For delicate  image quality it has a WQHD 2560 x 1440 resolution VESA DisplayHDR 600 is Adaptive-Sync compatible  and overclockable to a 170 Hz refresh  rate making it ideal  for professional video editing and CG work	Positive	New Projects	84
700		28403	Acer Inc	Covering 99% of the Adobe RGB color space and leveraging a fast  1 ms GTG response time it produces rich  and lifelike images	Positive	Business Performance	37
701		28403	Acer Inc	The ConceptD CP3 Monitor also aimed at professional creators video editors animators and graphic designers has similar specifications and supports 98% of the DCI-P3 wide color gamut WQHD 3840 x 2160 with a refresh  rate up to 165 Hz as well as	Positive	General	77
702		28403	Acer Inc	The ConceptD CM3 series of monitors is aimed specifically at professional graphic designers and photo editors desiring  a monitor that can display finely detailed design concepts and 3D content	Positive	Market Expansion	25
703		28403	Acer Inc	It is ideal  for professional designers that need to quickly and smoothly perform tasks requiring superb  color accuracy blur-free display and a wide color range as well as outstanding  HDR and reliable  compatibility	Positive	Business Risk	14
704		28403	Acer Inc	The line is ideal  for creators performing 3D modeling editing static imagery and performing rendering tasks	Positive	General	78
705		28403	Acer Inc	The large  screens support the design process and facilitate  collaboration	Positive	New Projects	85
706		28403	Acer Inc	The CM3271K model offers a 4K UHD 3840 x 2160 screen with a 4 ms G to G response time 60 Hz refresh  rate and a wide color gamut supporting  99% of the Adobe RGB color space	Positive	Market Expansion	26
707	Positive	28381	ABB Ltd	Please enable  JavaScript to continue using this application	Positive	Business Performance	11
708	Positive	28400	ABB Ltd	The State of Washington operates the one of the largest  ferry fleets in world	Positive	Business Risk	6
709		28400	ABB Ltd	Visitors to the Seattle area are well  familiar with the sight of its green and white ferries crisscrossing Puget Sound all day every day almost all of them powered by diesel engines	Positive	Business Risk	7
710		28400	ABB Ltd	Combined they suck  down about 20 million gallons of diesel fuel a year which means they are spewing  enormous  amounts of carbon dioxide and particulate matter in their wake	Negative	Business Performance	12
711		28400	ABB Ltd	Under the leadership of Washington Governor Jay Inslee  one of the few political leaders in the US who takes climate change seriously  the management of the state ferry system has made a serious commitment  to reducing pollution from its ferries by converting some existing vessels to electric power and calling for any new ferries to be primarily battery electric vessels	Positive	Business Risk	8
712		28400	ABB Ltd	Even if youre not an environmentalist this is a good  idea for the taxpayer because we expect it to pay for itself relatively quickly based on the price of fuel	Positive	General	16
713		28400	ABB Ltd	Now Vigor Shipyards which builds vessels in the Pacific Northwest has been awarded  a contract to build new battery-powered Olympic class ferries for the state of Washington	Positive	New Projects	21
714		28400	ABB Ltd	This landmark project supports Washington States goal for 2050 to reduce  emissions by 575 per cent below the emissions level in 2019 utilising a hybrid and electric propulsion solution that is space-efficient easy to install and flexible in operation Jay Hebert vice president of marine fabrication  at Vigor tells Cruise and Ferry magazine	Negative	New Projects	22
715		28400	ABB Ltd	Vigor is delighted  to partner with ABB in this remarkable work prompted by the commitment  of Washington Governor Jay Inslee the state legislature and Washington State Ferries to replace aging ferries with clean  technology in alignment with the states commitment  to environmental stewardship he added	Positive	New Projects	23
716		28400	ABB Ltd	By 2040 the ferry service expects to replace 13 of its current ships with vessels that operate primarily on electricity they will have diesel engines as a backup power source and convert 6 more ferries to become plug-in hybrid vessels saving more than 10 million gallons of diesel fuel from being burned  each year	Negative	Market Expansion	11
717		28400	ABB Ltd	Moving towards a zero emission future relies on technologies that meet the environmental and cost needs of today and offer flexibility  to integrate future energy sources in the years ahead says Juha Koskela managing director of ABB Marine & Ports	Positive	New Projects	24
718		28400	ABB Ltd	ABB is delighted  to support this milestone project demonstrating the way that electric digital and connected solutions can deliver shippings	Positive	Market Expansion	12
719		28400	ABB Ltd	future Seattle joins several other ferry services in Denmark Norway Iceland and elsewhere that are transitioning from diesel ferries to electric or hybrid electric ferries in order to lower costs and reduce  emissions from the vessels they operate	Positive	New Projects	25
720		28400	ABB Ltd	Saving the planet is nice  but doing it in a way that saves companies and taxpayers money is even better 	Positive	General	17
721	Positive	28404	Acer Inc	In a bid to cater to rising E-learning demand Acer has launched its Veriton N series of affordable  business PCs in India	Positive	Business Performance	38
722		28404	Acer Inc	Acer has managed to achieve an all-in-one PC experience by designing the desktop in an ultra-small form factor		New Projects	86
723		28404	Acer Inc	While the PC is equipped  with 4GB of RAM out of the box Acer says we can expand the memory up to 8GB	Positive	Business Performance	39
724		28404	Acer Inc	Acer also mentioned that the PCs will have up to six USB ports with at least two Gen 31 Gen 1 USB-A for faster  data transfers	Positive	Business Performance	40
725		28404	Acer Inc	Sudhir Goel Chief of commercial group Acer India said that the new Acer Veriton N series of PCs will be affordable  and fulfil the demand for E-learning enterprises and small businesses in the country	Positive	Business Performance	41
726		28404	Acer Inc	He hopes that by launching  Affordable  PCs they can lead the way by setting a precedent for the industry in the forthcoming quarters of 2020	Positive	Market Expansion	27
727	Negative	28385	ABB Ltd	Juni hatten wir die  Abonnenten des RuMaS Express-Service auf eine gute	Negative	Business Performance	13
728		28385	ABB Ltd	Über diesen Link können Sie die  vollständige ABB Analyse sofort kostenlos ansehen	Negative	Business Performance	14
729	Positive	28387	ABB Ltd	The PxS100 range is suitable  for use in the water wastewater metals mining pulp and paper cement and power ancillary sectors	Positive	General	18
730		28387	ABB Ltd	Unique  features include QR codes for easy  access to online operational instructions and advice; abrasive  resistant technology to protect  the metallic diaphragm and extend working life; and ABBs H-shield to protect  against monatomic hydrogen and ensure  measurement accuracy	Positive	General	19
731		28387	ABB Ltd	The HMI Human Machine Interface rotates for visibility from any angle features through the glass configuration capabilities and can be ordered with accessible  backlight for low light environments	Positive	General	20
732		28387	ABB Ltd	The ingress protection makes it suitable  for clean-in-place applications in the food and beverage sector	Positive	General	21
733		28387	ABB Ltd	In alignment with specifications requested by its reference market the PxS100 provides  base accuracy of 025% of span with the option of improvement  to 01%	Positive	Business Performance	15
734		28387	ABB Ltd	It is available in both Gauge and Absolute sensor variants and offers five different measurement ranges covering applications from 40 mbar 16in H2O up to 100 bar 1450 psi thanks to its 10:1 turndown capability  and full rangeability	Positive	Market Expansion	13
735	Positive	28390	ABB Ltd	The deal reflects the commercial importance placed by the global energy sector on sustainable  energy including facilities mobility solutions smart  cities industry and information technology	Positive	Business Risk	9
736		28390	ABB Ltd	The two companies are now looking to grow and improve  on these capabilities according to Thursdays statement	Positive	Business Performance	16
737		28390	ABB Ltd	Hitachi ABB Power Grids will expand Hitachis energy solutions business globally as a core part of the companys Social Innovation  Business	Positive	Market Expansion	14
738		28390	ABB Ltd	The new entitys headquarters will remain in Zurich Switzerland with the current management team ensuring business continuity 	Positive	General	22
739		28390	ABB Ltd	Nishino said that Hitachis pioneering digital technologies with world-class energy grid solutions will help  the company play an important  role in global transformation	Positive	General	23
740		28390	ABB Ltd	It will also look to reduce  carbon emissions from energy systems to provide  a sustainable  energy future alongside smart  solutions for the most dynamic  network	Positive	General	24
741		28390	ABB Ltd	Nishino added It will also contribute  to achieving the United Nations Sustainable  Development Goal 7 which is to ensure  universal access to affordable  reliable and clean energy	Positive	Business Performance	17
742	Positive	28394	ABB Ltd	We would like  to offer advanced  energy solutions to the world and lead innovations with our digital technologies CEO Toshiaki Higashihara said in an online press conference	Positive	General	25
743		28394	ABB Ltd	The Japanese information and infrastructure giant bought an 801 percent stake in ABBs power grid business for around 740 billion yen $69 billion in Hitachis largest-ever corporate acquisition and set up Hitachi ABB Power Girds Ltd in Zurich Switzerland		New Projects	26
744		28394	ABB Ltd	We have obtained a great  asset to make Hitachi fly high as a significant  global company Higashihara said	Positive	Market Expansion	15
745	Positive	28395	ABB Ltd	ABB has again been selected as a member of the FTSE4Good Index Series marking the 20th consecutive year of recognition for its sustainability  performance	Positive	General	26
746		28395	ABB Ltd	With an overall score of 41 on a scale  of 0-5 ABB is among the best  performers in the index and a leader among its peers	Positive	Business Performance	18
747		28395	ABB Ltd	FTSE4Good is a global sustainable  investment index series designed to identify companies that demonstrate strong  Environmental Social and Governance ESG practices measured against international standards	Positive	Market Expansion	16
748		28395	ABB Ltd	The series is an important  tool for a wide variety  of market participants when creating or assessing sustainable  investment products	Positive	Business Performance	19
749		28395	ABB Ltd	The renewed  listing in the index confirms that we are on the right  track as we are working on a new set of ambitious  long-term objectives which we will publish later this year said Roland Dubois ABBs Head of Sustainability 	Positive	Business Performance	20
750		28395	ABB Ltd	Last year ABB reached or exceeded  more than half of its sustainability  targets ahead of schedule	Positive	Business Performance	21
751		28395	ABB Ltd	ABBs eco-efficiency portfolio which enables sustainable  smart  cities industries and transport systems to mitigate  climate change and conserve non-renewable resources accounted for 57 percent of total revenues in 2019	Positive	Business Performance	22
752		28395	ABB Ltd	SIX Swiss Ex is a leading global technology company that energizes the transformation of society and industry to achieve a more productive  sustainable  future	Positive	New Projects	27
753		28395	ABB Ltd	With a history of excellence  stretching back more than 130 years ABBs success  is driven by about 110000 talented  employees in over 100 countries	Positive	General	27
754	Negative	28397	ABB Ltd	Expansionsmöglichkeiten für das neue Unternehmen in Bereichen wie Mobilität Smart  Cities Industrie Energiespeicherung und Rechenzentren erleichtern und	Positive	New Projects	28
755		28397	ABB Ltd	zu neuen und wachsenden Märkten durch Hitachi werden helfen Power Grids auf die  nächste Entwicklungsstufe zu führen und die  führende Position weiter zu stärken sagte Timo Ihamuotila CFO von ABB und Director of the Board von Hitachi ABB Power Grids	Negative	General	28
756		28397	ABB Ltd	und stärkt die  bestehende Geschäftsbeziehung zwischen unseren Unternehmen ergänzte er	Negative	General	29
757	Positive	28399	ABB Ltd	It is therefore vital  that these rapidly expanding urban hubs take proactive  steps to reduce  their carbon emissions and e-mobility is a key factor in achieving this	Positive	General	30
758		28399	ABB Ltd	But for e-mobility to be viable in high density cities where time is short and space is at a premium  solutions must be developed which address these challenges	Positive	New Projects	29
759		28399	ABB Ltd	The Terra 184 charger the latest member of ABBs best-selling Terra family of chargers is fast  compact robust  and provides  the ability to charge up to three vehicles simultaneously3 maximizing convenience  for drivers and revenue for the charging operator	Positive	New Projects	30
760		28399	ABB Ltd	Indeed its innovative  design means there is no need for separately installed power cabinets offering the perfect  fast  and compact solution for cities with limited space Over the last decade ABB has laid the foundation for the future of sustainable  transportation	Positive	New Projects	31
761		28399	ABB Ltd	It is highly customizable  with features including customized credit card payment terminal screen and cables which have also been designed at 8 meters for maximum charging convenience 	Positive	General	31
762		28399	ABB Ltd	For added flexibility  operators of other Terra models such as the Terra 94 or 124 can in the future chose to upgrade their charging solution to the Terra 184 with the addition of extra power modules	Positive	Market Expansion	17
763		28399	ABB Ltd	It offers a safe  smart and sustainable  charging solution which supports ABB Electrifications Mission to Zero a vision for a zero-emission reality for all	Positive	New Projects	32
764		28399	ABB Ltd	ABB has unrivalled expertise  in developing sustainable  transport solutions	Positive	New Projects	33
765		28399	ABB Ltd	Since entering the EV-charging market a decade ago ABB has sold more than 14000 ABB DC fast  chargers across more than 80 countries	Positive	Business Performance	23
766		28399	ABB Ltd	ABB recently received the Global E-mobility Leader 2019 award  for its role in supporting  the international adoption of sustainable  transport solutions	Positive	New Projects	34
767		28399	ABB Ltd	ABB abbcom is a leading global technology company that energizes the transformation of society and industry to achieve a more productive  sustainable  future	Positive	New Projects	35
768		28399	ABB Ltd	With a history of excellence  stretching back more than 130 years ABBs success  is driven by about 110000 talented  employees in over 100 countries	Positive	General	32
769		28399	ABB Ltd	2 fast  charging and one slow/AC charging vehicle	Positive	New Projects	36
770	Positive	28401	ABB Ltd	The deal reflects the commercial importance placed by the global energy sector on sustainable  energy including facilities mobility solutions smart  cities industry and information technology	Positive	Business Risk	10
771		28401	ABB Ltd	The two companies are now looking to grow and improve  on these capabilities according to Thursdays statement	Positive	Market Expansion	18
772		28401	ABB Ltd	Hitachi ABB Power Grids will expand Hitachis energy solutions business globally as a core part of the companys Social Innovation  Business	Positive	Market Expansion	19
773		28401	ABB Ltd	The new entitys headquarters will remain in Zurich Switzerland with the current management team ensuring business continuity 	Positive	General	33
774		28401	ABB Ltd	Nishino said that Hitachis pioneering digital technologies with world-class energy grid solutions will help  the company play an important  role in global transformation	Positive	General	34
775		28401	ABB Ltd	It will also look to reduce  carbon emissions from energy systems to provide  a sustainable  energy future alongside smart  solutions for the most dynamic  network	Positive	General	35
776		28401	ABB Ltd	Nishino added It will also contribute  to achieving the United Nations Sustainable  Development Goal 7 which is to ensure  universal access to affordable  reliable and clean energy	Positive	Business Performance	24
777	Positive	28370	ABB Ltd	The deal reflects the commercial importance placed by the global energy sector on sustainable  energy including facilities mobility solutions smart  cities industry and information technology	Positive	Business Risk	11
778		28370	ABB Ltd	The two companies are now looking to grow and improve  on these capabilities according to Thursdays statement	Positive	Business Performance	25
779		28370	ABB Ltd	Hitachi ABB Power Grids will expand Hitachis energy solutions business globally as a core part of the companys Social Innovation  Business	Positive	Market Expansion	20
780		28370	ABB Ltd	The new entitys headquarters will remain in Zurich Switzerland with the current management team ensuring business continuity 	Positive	General	36
781		28370	ABB Ltd	Nishino said that Hitachis pioneering digital technologies with world-class energy grid solutions will help  the company play an important  role in global transformation	Positive	General	37
782		28370	ABB Ltd	It will also look to reduce  carbon emissions from energy systems to provide  a sustainable  energy future alongside smart  solutions for the most dynamic  network	Positive	General	38
783		28370	ABB Ltd	Nishino added It will also contribute  to achieving the United Nations Sustainable  Development Goal 7 which is to ensure  universal access to affordable  reliable and clean energy	Positive	Business Performance	26
784	Positive	28374	ABB Ltd	We would like  to offer advanced  energy solutions to the world and lead innovations with our digital technologies CEO Toshiaki Higashihara said in an online press conference	Positive	General	39
785		28374	ABB Ltd	The Japanese information and infrastructure giant bought an 801 percent stake in ABBs power grid business for around 740 billion yen $69 billion in Hitachis largest-ever corporate acquisition and set up Hitachi ABB Power Girds Ltd in Zurich Switzerland		New Projects	37
786		28374	ABB Ltd	We have obtained a great  asset to make Hitachi fly high as a significant  global company Higashihara said	Positive	Market Expansion	21
787	Positive	28376	ABB Ltd	July 2 2020  Hitachi ABB Power Grids Ltd commenced  operations yesterday July 1the culmination of an agreement signed in December 2018 between Hitachi Ltd and	Positive	New Projects	38
788		28376	ABB Ltd	Hitachis leading digital technologies merged with world-class power grid solutions will help  us to play an active  role in the global transformation and decarbonization of energy systems for a sustainable  energy future said Nishino	Positive	Market Expansion	22
789		28376	ABB Ltd	Advertisment ABB says this venture will facilitate expansion  [ ] in areas such as mobility smart  cities industry energy storage and data centres provide  financing to support ambitious projects and provide  access to the Japanese market	Positive	Business Performance	27
790	Positive	28375	ABB Ltd	It is therefore vital  that these rapidly expanding urban hubs take proactive  steps to reduce  their carbon emissions and e-mobility is a key factor in achieving this	Positive	General	40
791		28375	ABB Ltd	But for e-mobility to be viable in high density cities where time is short and space is at a premium  solutions must be developed which address these challenges	Positive	New Projects	39
792		28375	ABB Ltd	The Terra 184 charger the latest member of ABBs best-selling Terra family of chargers is fast  compact robust  and provides  the ability to charge up to three vehicles simultaneously3 maximizing convenience  for drivers and revenue for the charging operator	Positive	New Projects	40
793		28375	ABB Ltd	Indeed its innovative  design means there is no need for separately installed power cabinets offering the perfect  fast  and compact solution for cities with limited space Over the last decade ABB has laid the foundation for the future of sustainable  transportation	Positive	New Projects	41
794		28375	ABB Ltd	It is highly customizable  with features including customized credit card payment terminal screen and cables which have also been designed at 8 meters for maximum charging convenience 	Positive	General	41
795		28375	ABB Ltd	For added flexibility  operators of other Terra models such as the Terra 94 or 124 can in the future chose to upgrade their charging solution to the Terra 184 with the addition of extra power modules	Positive	Market Expansion	23
796		28375	ABB Ltd	It offers a safe  smart and sustainable  charging solution which supports ABB Electrifications Mission to Zero a vision for a zero-emission reality for all	Positive	New Projects	42
797		28375	ABB Ltd	ABB has unrivalled expertise  in developing sustainable  transport solutions	Positive	New Projects	43
798		28375	ABB Ltd	Since entering the EV-charging market a decade ago ABB has sold more than 14000 ABB DC fast  chargers across more than 80 countries	Positive	Business Performance	28
799		28375	ABB Ltd	ABB recently received the Global E-mobility Leader 2019 award  for its role in supporting  the international adoption of sustainable  transport solutions	Positive	New Projects	44
800		28375	ABB Ltd	ABB abbcom is a leading global technology company that energizes the transformation of society and industry to achieve a more productive  sustainable  future	Positive	New Projects	45
801		28375	ABB Ltd	With a history of excellence  stretching back more than 130 years ABBs success  is driven by about 110000 talented  employees in over 100 countries	Positive	General	42
802		28375	ABB Ltd	2 fast  charging and one slow/AC charging vehicle	Positive	New Projects	46
803	Positive	28377	ABB Ltd	It is therefore vital  that these rapidly expanding urban hubs take proactive  steps to reduce  their carbon emissions and e-mobility is a key factor in achieving this	Positive	General	43
804		28377	ABB Ltd	But for e-mobility to be viable in high density cities where time is short and space is at a premium  solutions must be developed which address these challenges	Positive	New Projects	47
805		28377	ABB Ltd	The Terra 184 charger the latest member of ABBs best-selling Terra family of chargers is fast  compact robust  and provides  the ability to charge up to three vehicles simultaneously  maximizing convenience  for drivers and revenue for the charging operator	Positive	New Projects	48
806		28377	ABB Ltd	Indeed its innovative  design means there is no need for separately installed power cabinets offering the perfect  fast  and compact solution for cities with limited spaceOver the last decade ABB has laid the foundation for the future of sustainable  transportation	Positive	New Projects	49
807		28377	ABB Ltd	It is highly customizable  with features including customized credit card payment terminal screen and cables which have also been designed at 8 meters for maximum charging convenience 	Positive	General	44
808		28377	ABB Ltd	For added flexibility  operators of other Terra models such as the Terra 94 or 124 can in the future chose to upgrade their charging solution to the Terra 184 with the addition of extra power modules	Positive	Market Expansion	24
809		28377	ABB Ltd	It offers a safe  smart and sustainable  charging solution which supports ABB Electrifications Mission to Zero a vision for a zero-emission reality for all	Positive	New Projects	50
810		28377	ABB Ltd	ABB has unrivalled expertise  in developing sustainable  transport solutions	Positive	New Projects	51
811		28377	ABB Ltd	Since entering the EV-charging market a decade ago ABB has sold more than 14000 ABB DC fast  chargers across more than 80 countries	Positive	Business Performance	29
812		28377	ABB Ltd	ABB recently received the Global E-mobility Leader 2019 award  for its role in supporting  the international adoption of sustainable  transport solutions	Positive	New Projects	52
813		28377	ABB Ltd	SIX Swiss Ex is a leading global technology company that energizes the transformation of society and industry to achieve a more productive  sustainable  future	Positive	New Projects	53
814		28377	ABB Ltd	With a history of excellence  stretching back more than 130 years ABBs success  is driven by about 110000 talented  employees in over 100 countries	Positive	General	45
815	Positive	28378	ABB Ltd	According to Hitachi under the leadership of Claudio Facchinas CEO and Toshikazu Nishino Executive Vice President of Hitachi as Chairman Hitachi ABB Power Grids will expand Hitachis energy solutions business globally as a core part of the companys Social Innovation  Business	Positive	General	46
816		28378	ABB Ltd	By combining world-class power grids business with Hitachis advanced  digital technologies such as Lumada Hitachi and Hitachi ABB Power Grids will provide  innovative  energy solutions spanning the Energy utilities Mobility Smart  Life cities Industryand ITsectors	Positive	Market Expansion	25
817		28378	ABB Ltd	With roots in Hitachi and ABB the new business will build on more than one century of expertise  in pioneering engineering technologies enabling customers to increase  efficiency  and maintaining resilience	Positive	Market Expansion	26
818		28378	ABB Ltd	It will unlock new business models and contributesocial environmental and economic valuesfor a sustainable  society	Positive	General	47
819		28378	ABB Ltd	The need for innovative  energy solutionsis being driven by short-and long-term global trends	Positive	New Projects	54
820		28378	ABB Ltd	The share of renewables in the energy mix is increasing significantly  and will play a key role in achieving the ambitious  decarbonization targets set by countries aroundthe world	Positive	Market Expansion	27
821		28378	ABB Ltd	Intermittent  by nature renewable energy sources have resulted in increased  complexity; while many countries have made great  strides in the adoption of renewables they now need to manage a more dynamic  system requiring increased  flexibility  and resilience to achieve a sustainable  outcome	Positive	Market Expansion	28
822		28378	ABB Ltd	The rapid  rise indistributed power generationand changes in consumption patterns for example the emergence of prosumers are parts of this changing energy landscape	Positive	Business Risk	12
823		28378	ABB Ltd	Furthermore the growth  of electric vehicles and expansion  of the worldsdata centers has ramped up electricity demand	Positive	Business Performance	30
824		28378	ABB Ltd	The demand for electricity continues to outpace the rising need for energy; the challenge is to meet this growing demand while minimizing environmental impact  fora sustainable  energy future	Negative	Business Performance	31
825		28378	ABB Ltd	The new joint venture and its 36000 employees remain committed  to be the partner of choice for stronger  smarter and greener power grids	Positive	New Projects	55
826		28378	ABB Ltd	Underpinned by a customer-focused mindset and a world-class R&D organization of around 2000 experts the company will continue to differentiate itself through customer service domain expertise  technology and innovation  an unparalleled  global footprint and an installed base	Positive	General	48
827		28378	ABB Ltd	Hitachi will consider to acquire  the remaining 199% stake of Hitachi ABB Power Grids  making it a wholly owned subsidiary after 2023	Positive	Market Expansion	29
828	Positive	28379	ABB Ltd	ABB has introduced a new rapid  charging station that will enable  charging capacities of up to 180 kW With its small footprint the Terra 184 should be particularly suitable  for use in the city and cheaper  than similarly powerful  models	Positive	New Projects	56
829		28379	ABB Ltd	Nevertheless external power cabinets increase  the space required and the amount of construction work	Positive	General	49
830		28379	ABB Ltd	The Terra 184 should enable  the simultaneous charging of three vehicles	Positive	General	50
831		28379	ABB Ltd	According to ABB the charging station is compatible  with all charging standards on the market	Positive	Business Risk	13
832		28379	ABB Ltd	In addition operators of other Terra models such as the Terra 94 or 124 should be able  to upgrade their charging stations to the Terra 184 status with additional power modules	Positive	Market Expansion	30
833		28379	ABB Ltd	In order to make the charging process as convenient  as possible for the customer the cables are designed with a length of eight meters	Positive	New Projects	57
834		28379	ABB Ltd	Then the cables are more expensive  and heavier and above all I have to integrate a cooling circuit says Mühlon	Negative	New Projects	58
835		28379	ABB Ltd	In terms of charging characteristics this is currently completely sufficient  for most vehicle types especially in urban environments says the ABB manager	Positive	New Projects	59
836		28379	ABB Ltd	ABB has not made any mention of prices yet but because it does not use liquid-cooled cables the model is said to be cheaper  than the Terra HP CP500 C2 which enables up to 175 kW abbcom	Positive	New Projects	60
837	Positive	28380	Acer Inc	In a bid to cater to rising E-learning demand Acer has launched its Veriton N series of affordable  business PCs in India	Positive	Business Performance	42
838		28380	Acer Inc	Acer has managed to achieve an all-in-one PC experience by designing the desktop in an ultra-small form factor		New Projects	87
839		28380	Acer Inc	While the PC is equipped  with 4GB of RAM out of the box Acer says we can expand the memory up to 8GB	Positive	Business Performance	43
840		28380	Acer Inc	Acer also mentioned that the PCs will have up to six USB ports with at least two Gen 31 Gen 1 USB-A for faster  data transfers	Positive	Business Performance	44
841		28380	Acer Inc	Sudhir Goel Chief of commercial group Acer India said that the new Acer Veriton N series of PCs will be affordable  and fulfil the demand for E-learning enterprises and small businesses in the country	Positive	Business Performance	45
842		28380	Acer Inc	He hopes that by launching  Affordable  PCs they can lead the way by setting a precedent for the industry in the forthcoming quarters of 2020	Positive	Market Expansion	28
843	Negative	28309	Ador Welding Ltd	Ador Welding AWL reported consolidated revenues at Rs 1399 crore down 69% YoY impacted  by disrupted business activities across sectors	Negative	Business Performance	1
844		28309	Ador Welding Ltd	76 crore down 232% YoY impacted  by higher other operating expenses owing to one-time provisions	Negative	Business Performance	2
845		28309	Ador Welding Ltd	EBITDA margins fell  160 bps YoY to 76%	Negative	Business Performance	3
846		28309	Ador Welding Ltd	However gross  margins for Q4FY20 FY20 improved  280 bps 100 bps to ~29% 304% respectively	Negative	Business Performance	4
847		28309	Ador Welding Ltd	EBITDA margin for FY20 was at 82% with a marginal decline  of 40 bps YoY PAT was at Rs 69 crore down 88% YoY supported  by lower effective  tax rate for the quarter	Positive	Business Performance	5
848		28309	Ador Welding Ltd	For FY20 PAT was at Rs 287 crore up 171% YoY aided by new tax regime benefit 	Positive	Business Performance	6
849		28309	Ador Welding Ltd	Valuation & Outlook AWL has performed reasonably well in consumables business aided by gross  margin improvement  owing to product mix while PEB business has seen some green shoots and holds key	Negative	Business Performance	7
850		28309	Ador Welding Ltd	Debt working capital position increased  to 90 days in FY20 will be closely watched amid economic slowdown 	Negative	General	1
851		28309	Ador Welding Ltd	We maintain our BUY  rating	Positive	Business Performance	8
852		28309	Ador Welding Ltd	Delay  in PEB execution working capital stress 	Negative	General	2
853	Negative	28309	Ador Welding Ltd	Ador Welding AWL reported consolidated revenues at Rs 1399 crore down 69% YoY impacted  by disrupted business activities across sectors	Negative	Business Performance	9
854		28309	Ador Welding Ltd	76 crore down 232% YoY impacted  by higher other operating expenses owing to one-time provisions	Negative	Business Performance	10
855		28309	Ador Welding Ltd	EBITDA margins fell  160 bps YoY to 76%	Negative	Business Performance	11
856		28309	Ador Welding Ltd	However gross  margins for Q4FY20 FY20 improved  280 bps 100 bps to ~29% 304% respectively	Negative	Business Performance	12
857		28309	Ador Welding Ltd	EBITDA margin for FY20 was at 82% with a marginal decline  of 40 bps YoY PAT was at Rs 69 crore down 88% YoY supported  by lower effective  tax rate for the quarter	Positive	Business Performance	13
858		28309	Ador Welding Ltd	For FY20 PAT was at Rs 287 crore up 171% YoY aided by new tax regime benefit 	Positive	Business Performance	14
859		28309	Ador Welding Ltd	Valuation & Outlook AWL has performed reasonably well in consumables business aided by gross  margin improvement  owing to product mix while PEB business has seen some green shoots and holds key	Negative	Business Performance	15
860		28309	Ador Welding Ltd	Debt working capital position increased  to 90 days in FY20 will be closely watched amid economic slowdown 	Negative	General	3
861		28309	Ador Welding Ltd	We maintain our BUY  rating	Positive	Business Performance	16
862		28309	Ador Welding Ltd	Delay  in PEB execution working capital stress 	Negative	General	4
863	Negative	28275	Ador Welding Ltd	Sales decline  687% to Rs 13990 croreNet profit of Ador Welding declined  875% to Rs 688 crore in the quarter ended March 2020 as against Rs 754 crore during the previous quarter ended March 2019	Negative	Business Performance	17
864		28275	Ador Welding Ltd	Sales declined  687% to Rs 13990 crore in the quarter ended March 2020 as against Rs 15022 crore during the previous quarter ended March 2019	Negative	Business Performance	18
865	Negative	28275	Ador Welding Ltd	Sales decline  687% to Rs 13990 croreNet profit of Ador Welding declined  875% to Rs 688 crore in the quarter ended March 2020 as against Rs 754 crore during the previous quarter ended March 2019	Negative	Business Performance	19
866		28275	Ador Welding Ltd	Sales declined  687% to Rs 13990 crore in the quarter ended March 2020 as against Rs 15022 crore during the previous quarter ended March 2019	Negative	Business Performance	20
867	Positive	28150	Barco	The LCD displays on the entire wall and the cutting-edge audio system makes it possible for people to enjoy  the contents while waiting in Shibuya	Positive	New Projects	1
868		28150	Barco	GMO Digital Hachiko offers free  Wi-Fi and a charging spot that can be used as a meeting place unaffected  by the weather	Positive	Business Risk	1
869		28150	Barco	The audio and video systems were specially selected for an immersive  experience	Positive	General	1
870		28150	Barco	48 units of Barcos bezel-less video wall system Barco UniSee were installed making the front right  and left sides walls one big display 220 inches width 4854 mm x height 2732 mm x 3 surfaces	Positive	New Projects	2
871		28150	Barco	By combining the sound with three-dimensional presence and high-definition seamless  video on three sides it forms a digital art space where you can experience immersive  feeling like  never before	Positive	New Projects	3
872	Positive	28151	BASF SE	Despite significant  investments to improve  assets long-term profitable  operations are no longer possible in Erie	Positive	Business Performance	1
873		28151	BASF SE	This is a difficult  situation and we are grateful  for the BASF Erie site teams dedication over the years and	Negative	Business Risk	1
874		28151	BASF SE	BASF will provide  severance and outplacement services to employees including support for employment at other BASF facilities	Positive	General	1
875	Negative	28275	Ador Welding Ltd	Sales decline  687% to Rs 13990 croreNet profit of Ador Welding declined  875% to Rs 688 crore in the quarter ended March 2020 as against Rs 754 crore during the previous quarter ended March 2019	Negative	Business Performance	21
876		28275	Ador Welding Ltd	Sales declined  687% to Rs 13990 crore in the quarter ended March 2020 as against Rs 15022 crore during the previous quarter ended March 2019	Negative	Business Performance	22
877	Negative	28275	Ador Welding Ltd	Sales decline  687% to Rs 13990 croreNet profit of Ador Welding declined  875% to Rs 688 crore in the quarter ended March 2020 as against Rs 754 crore during the previous quarter ended March 2019	Negative	Business Performance	23
878		28275	Ador Welding Ltd	Sales declined  687% to Rs 13990 crore in the quarter ended March 2020 as against Rs 15022 crore during the previous quarter ended March 2019	Negative	Business Performance	24
879	Positive	28152	BASF SE	Helps  customers meet future regulatory requirements lower operating costs and increase  capacity Selectively removes hydrogen sulfide while minimizing co-absorption of carbon dioxide from gas streams LUDWIGSHAFEN Germany and HOUSTON Texas USA  BASF SE and ExxonMobil Catalysts and Licensing LLC have released a new highly energy efficient  amine gas treatment technology named OASE sulfexx	Positive	New Projects	6
880		28152	BASF SE	The companies jointly developed the amine-based solvent to help  petroleum refiners and gas processors meet future requirements while also increasing capacity and lowering operating costs on existing equipment	Positive	Business Performance	2
881		28152	BASF SE	For new facilities the use of this technology will reduce  the size of the equipment and the initial capital investment compared to conventional amine gas treatment units	Positive	General	2
882		28152	BASF SE	We are pleased  to partner with BASF to develop OASE sulfexx a compelling  solution aimed at helping  operators reduce  emissions and lower costs said Dan Moore president of ExxonMobil Catalysts and Licensing LLC	Positive	General	3
883		28152	BASF SE	Collaborating to develop new game-changing technologies is central to how we work and the development of this new product provides  yet another example of what we bring to the marketplace OASE sulfexx will help  our customers to achieve their sustainability  goals by lowering energy consumption and reducing sulfur emissions said Andreas Northemann vice president of BASF Gas Treatment	Positive	New Projects	7
884		28152	BASF SE	 its hard  to find a product on the market with that type of capability Multiple pilot plant tests at ExxonMobil and BASF facilities have demonstrated the superior  selective  properties of this solvent compared to methyldiethanolamine MDEA formulations and FLEXSORB SE and SE Plus solvents	Positive	Business Risk	2
885		28152	BASF SE	OASE sulfexx will help  to debottleneck existing Claus tail gas treating acid gas enrichment  and high-pressure acid gas removal units	Positive	Market Expansion	2
886		28152	BASF SE	In Claus tail gas treating units the technology can achieve less than 10 ppmv H 2 S specifications while rejecting  CO 2 to meet future emission requirements	Negative	Business Risk	3
887	Positive	28150	Barco	The LCD displays on the entire wall and the cutting-edge audio system makes it possible for people to enjoy  the contents while waiting in Shibuya	Positive	New Projects	4
888		28150	Barco	GMO Digital Hachiko offers free  Wi-Fi and a charging spot that can be used as a meeting place unaffected  by the weather	Positive	Business Risk	2
889		28150	Barco	The audio and video systems were specially selected for an immersive  experience	Positive	General	2
890		28150	Barco	48 units of Barcos bezel-less video wall system Barco UniSee were installed making the front right  and left sides walls one big display 220 inches width 4854 mm x height 2732 mm x 3 surfaces	Positive	New Projects	5
891		28150	Barco	By combining the sound with three-dimensional presence and high-definition seamless  video on three sides it forms a digital art space where you can experience immersive  feeling like  never before	Positive	New Projects	6
892	Positive	28151	BASF SE	Despite significant  investments to improve  assets long-term profitable  operations are no longer possible in Erie	Positive	Business Performance	3
893		28151	BASF SE	This is a difficult  situation and we are grateful  for the BASF Erie site teams dedication over the years and	Negative	Business Risk	4
894		28151	BASF SE	BASF will provide  severance and outplacement services to employees including support for employment at other BASF facilities	Positive	General	4
895	Negative	28153	BASF SE	On June 3 the Ninth US Circuit Court of Appeals overturned the EPAs approval  of three dicamba-based herbicidesXtendiMax from Bayer; FeXapan from Corteva; and Engenia from BASFeffectively banning them across the country and causing some uproar  among farmers who depend on them	Negative	Business Risk	5
896		28153	BASF SE	In order to provide  some clarity the EPA released a cancellation order Monday which said farmers can use any supply of the herbicides they bought before June 3 but only until July 31	Positive	Business Risk	6
897		28153	BASF SE	Todays cancellation and existing stocks order is consistent  with EPAs standard practice following registration invalidation and is designed to advance compliance ensure  regulatory certainty and to prevent  the misuse of existing stocks	Positive	Business Performance	4
898		28153	BASF SE	Dicamba is a commonly used herbicide which kills  broad-leafed weeds	Negative	General	5
899		28153	BASF SE	Farmers spray it on crops that have been genetically modified to be dicamba-resistant but the herbicide has a tendency to drift onto neighboring farms causing significant damage  to non-resistant produce	Negative	Business Risk	7
900		28153	BASF SE	In its decision the appeals court found that the EPA had failed  to understand the danger  of dicamba when it extended its approval  for the herbicide in 2018	Negative	Business Risk	8
901	Positive	28152	BASF SE	Helps  customers meet future regulatory requirements lower operating costs and increase  capacity Selectively removes hydrogen sulfide while minimizing co-absorption of carbon dioxide from gas streams LUDWIGSHAFEN Germany and HOUSTON Texas USA  BASF SE and ExxonMobil Catalysts and Licensing LLC have released a new highly energy efficient  amine gas treatment technology named OASE sulfexx	Positive	New Projects	8
902		28152	BASF SE	The companies jointly developed the amine-based solvent to help  petroleum refiners and gas processors meet future requirements while also increasing capacity and lowering operating costs on existing equipment	Positive	Business Performance	5
903		28152	BASF SE	For new facilities the use of this technology will reduce  the size of the equipment and the initial capital investment compared to conventional amine gas treatment units	Positive	General	6
904		28152	BASF SE	We are pleased  to partner with BASF to develop OASE sulfexx a compelling  solution aimed at helping  operators reduce  emissions and lower costs said Dan Moore president of ExxonMobil Catalysts and Licensing LLC	Positive	General	7
905		28152	BASF SE	Collaborating to develop new game-changing technologies is central to how we work and the development of this new product provides  yet another example of what we bring to the marketplace OASE sulfexx will help  our customers to achieve their sustainability  goals by lowering energy consumption and reducing sulfur emissions said Andreas Northemann vice president of BASF Gas Treatment	Positive	New Projects	9
906		28152	BASF SE	 its hard  to find a product on the market with that type of capability Multiple pilot plant tests at ExxonMobil and BASF facilities have demonstrated the superior  selective  properties of this solvent compared to methyldiethanolamine MDEA formulations and FLEXSORB SE and SE Plus solvents	Positive	Business Risk	9
907		28152	BASF SE	OASE sulfexx will help  to debottleneck existing Claus tail gas treating acid gas enrichment  and high-pressure acid gas removal units	Positive	Market Expansion	3
908		28152	BASF SE	In Claus tail gas treating units the technology can achieve less than 10 ppmv H 2 S specifications while rejecting  CO 2 to meet future emission requirements	Negative	Business Risk	10
909	Negative	28153	BASF SE	On June 3 the Ninth US Circuit Court of Appeals overturned the EPAs approval  of three dicamba-based herbicidesXtendiMax from Bayer; FeXapan from Corteva; and Engenia from BASFeffectively banning them across the country and causing some uproar  among farmers who depend on them	Negative	Business Risk	11
910		28153	BASF SE	In order to provide  some clarity the EPA released a cancellation order Monday which said farmers can use any supply of the herbicides they bought before June 3 but only until July 31	Positive	Business Risk	12
911		28153	BASF SE	Todays cancellation and existing stocks order is consistent  with EPAs standard practice following registration invalidation and is designed to advance compliance ensure  regulatory certainty and to prevent  the misuse of existing stocks	Positive	Business Performance	6
912		28153	BASF SE	Dicamba is a commonly used herbicide which kills  broad-leafed weeds	Negative	General	8
913		28153	BASF SE	Farmers spray it on crops that have been genetically modified to be dicamba-resistant but the herbicide has a tendency to drift onto neighboring farms causing significant damage  to non-resistant produce	Negative	Business Risk	13
914		28153	BASF SE	In its decision the appeals court found that the EPA had failed  to understand the danger  of dicamba when it extended its approval  for the herbicide in 2018	Negative	Business Risk	14
915	Positive	28155	ABB Ltd	The aim of the cooperation  is to leverage  the companies existing technologies to jointly develop a complete solution for the market	Positive	Market Expansion	31
916		28155	ABB Ltd	Following the joint development and licensing agreement with Robert Bosch GmbH regarding the PowerCell S3 fuel cell stack for the automotive segment last year PowerCell Sweden AB has made a review of its strategic prioritizations and decided to increase  its focus on the stationary segment	Positive	New Projects	61
917		28155	ABB Ltd	Recommended  AI News:	Positive	General	51
918		28155	ABB Ltd	Vectra Integrates Network Threat  Detection and Response for Microsoft Security Services	Negative	General	52
919		28155	ABB Ltd	The MoU with ABB Power Grids is an important  step and a great  contribution  to our increased  efforts within the stationary segment	Positive	New Projects	62
920		28155	ABB Ltd	ABB Power Grids has a leading position and their knowledge market position and global footprint make them an ideal  partner within the stationary power segment Per Wassén CEO of PowerCell	Positive	Market Expansion	32
921		28155	ABB Ltd	Recommended  AI News:	Positive	General	53
922		28155	ABB Ltd	Supplyshark Says New Online Marketplace is Helping  Buyers in Search of PPE to Connect to New Suppliers	Positive	General	54
923		28155	ABB Ltd	The new generation of our energy landscape will require energy sources that are not only able  to meet the increasing demands but will also enable  cleaner  and safer electricity	Positive	Business Risk	14
924		28155	ABB Ltd	We are excited  to collaborate with Power Cell on driving the integration of fuel cell technology that will bring another vital  part to reach a fully sustainable  electrical landscape said Jenny Larsson President ABB Power Grids Sweden AB	Positive	New Projects	63
925		28155	ABB Ltd	Recommended  AI News:	Positive	General	55
926	Positive	28154	BASF SE	Despite significant  investments to improve  assets long-term profitable  operations are no longer possible in Erie	Positive	Business Performance	7
927		28154	BASF SE	This is a difficult  situation and we are grateful  for the BASF Erie site teams dedication over the years and	Negative	Business Risk	15
928		28154	BASF SE	BASF will provide  severance and outplacement services to employees including support for employment at other BASF facilities	Positive	General	9
929		28154	BASF SE	At BASF we create chemistry for a sustainable  future	Positive	New Projects	10
930		28154	BASF SE	We combine economic success  with environmental protection  and social responsibility	Positive	New Projects	11
931		28154	BASF SE	More than 117000 employees in the BASF Group work on contributing  to the success  of our customers in nearly all sectors and almost every country in the world	Positive	General	10
932	Positive	28128	ABB Ltd	ABB has been selected by Vigor Fab LLC to provide  hybrid-electric propulsion and energy storage system solutions for the newest  additions to the Washington State Ferry fleet setting the largest  US ferry system on course for zero-emission operations	Positive	New Projects	64
933		28128	ABB Ltd	The new Olympic Class ferries which will have the capacity to carry 144 cars and 1500 passengers each are an important  part of Washington States plans for significantly  reducing greenhouse gas emissions and fuel use	Positive	New Projects	65
934		28128	ABB Ltd	The new vessels will be able  to fully operate on battery power and will have the capability  to revert  to hybrid mode if required	Positive	Market Expansion	33
935		28128	ABB Ltd	This landmark project supports Washington States goal for 2050 to reduce  emissions by 575 percent below the emissions level in 2019 utilizing a hybrid and electric propulsion solution that is space-efficient easy to install and flexible in operation said Jay Hebert Vice President  Marine Fabrication  Vigor	Negative	New Projects	66
936		28128	ABB Ltd	Vigor is delighted  to partner with ABB in this remarkable work prompted by the commitment  of Washington Governor Jay Inslee the state legislature and Washington State Ferries to replace aging ferries with clean  technology in alignment with the states commitment  to environmental stewardship Leveraging ABBs Onboard DC Grid power distribution system and proven  drive technology the new ferry design will optimize  energy use whether drawing on main engine power battery power or a combination of the two	Positive	New Projects	67
937		28128	ABB Ltd	The battery power can also extend zero-emissions capability  along the supply chain by using renewables and hydroelectric power	Positive	General	56
938		28128	ABB Ltd	Moving towards a zero-emission future relies on technologies that meet the environmental and cost needs of today  and offer flexibility  to integrate future energy sources in the years	Positive	Business Performance	32
939		28128	ABB Ltd	ABB is delighted  to support this milestone project demonstrating the way that electric digital and connected solutions can deliver shippings zero-emission future	Positive	New Projects	68
940		28128	ABB Ltd	Washington State Ferries is the largest  ferry system in the US	Positive	New Projects	69
941		28128	ABB Ltd	All hybrid vessels will be capable  of charging at the terminal and some of the vessels will be capable  of operating in fully electric mode on shorter routes	Positive	General	57
942		28128	ABB Ltd	With the addition of newer-built clean  energy ferries to the fleet fuel consumption is projected at 95 million gallons in 2040 compared to 19 million gallons in 2018 with CO2 emissions expected to fall  below 2050 reduction targets by 2034	Negative	Market Expansion	34
943		28128	ABB Ltd	Vigor builds WSF ferries at its Harbor Island shipyard in Seattle and says that in addition to environmental and transportation benefits  construction of new ferries generates family-wage jobs and has other positive  economic impacts 	Positive	New Projects	70
944	Positive	28126	ABB Ltd	The International Dairy Foods Association IDFA the nations largest  trade association representing all segments of the dairy industry and ABB a global technology leader that is driving the digital transformation of industries have partnered to offer IDFA members a suite of automated  systems applications and integrated  solutions that will help  them to advance digitalization within their plants and facilities	Positive	Market Expansion	35
945		28126	ABB Ltd	Through the new partnership  ABB will offer a top-to-bottom Digital Plant Assessment to IDFAs members including processors of milk ice cream yogurt butter cheese dairy ingredients as well as equipment and packaging manufacturers	Positive	Market Expansion	36
946		28126	ABB Ltd	ABBs signature Digital Plant Assessment DPA can be conducted remotely or on-site to reveal opportunities for immediate and continuous operational improvement  that will deliver enhanced  process efficiencies and effectiveness 	Positive	New Projects	71
947		28126	ABB Ltd	We are so pleased  to partner with ABB a global leader in technology and digital transformation across the food sector to offer this important  service to IDFA members seeking process and supply chain improvements  to grow their businesses and remain resilient  in the face of future shocks said Michael Dykes DVM president and CEO of IDFA	Positive	General	58
948		28126	ABB Ltd	IDFA is an excellent  advocacy organization that is dedicated  to its members; ABB is proud  to be working closely with their team said Aaron Strupp North America Food and Beverage Director for ABB Process Industries	Positive	Market Expansion	37
949		28126	ABB Ltd	We look forward  to collaborating with IDFA and its members on ways to make a positive  difference for their businesses through the strategic application of individual consultancy services and technologies which supports the adoption of smart  manufacturing that improves  production and operational performance	Positive	Market Expansion	38
950		28126	ABB Ltd	As an IDFA Gold  Business Partner supplying its unique  services to the dairy processing and manufacturing industries ABB will offer its signature Digital Plant Assessment DPA at a discounted rate to IDFA members	Positive	New Projects	72
951		28126	ABB Ltd	ABB is a technology leader that offers a full portfolio of electrification motion automation and robotic solutions to optimize  production improve  safety and increase sustainability  in food and beverage processing	Positive	New Projects	73
952		28126	ABB Ltd	ABB works with food and beverage manufacturers around the globe driving efficiency  across the food chain from agri and aqua crop farming and harvesting to manufacturing and production processing through to end-of-line packaging	Positive	Market Expansion	39
953		28126	ABB Ltd	ABB has a history of innovation  in technology spanning more than 135 years and is driving the digital transformation of many industries	Positive	Market Expansion	40
954		28126	ABB Ltd	IDFA represents the nations dairy manufacturing and marketing industry which supports more than 3 million jobs that generate $159 billion in wages and $620 billion in overall economic impact 	Negative	New Projects	74
955		28126	ABB Ltd	IDFAs diverse membership ranges from multinational organizations to single-plant companies from dairy companies and cooperatives to food retailers and suppliers all on the cutting edge of innovation  and sustainable  business practices	Positive	General	59
956		28126	ABB Ltd	IDFA members are proud  to provide  delicious  safe and nutritious dairy foods to people of all ages everywhere	Positive	General	60
957	Positive	28112	BASF SE	On May 30 BASF kicked off the piling work of the first plants of its smart  Verbund project in Zhanjiang Guangdong China	Positive	New Projects	12
958		28112	BASF SE	This came as another important  milestone in the development of the companys US$10 billion investment project since its official commencement in November 2019	Positive	Business Performance	8
959		28112	BASF SE	The first plants will produce engineering plastics and thermoplastic polyurethane TPU to serve the increasing needs of various growth  industries in the southern China market and throughout Asia	Positive	New Projects	13
960		28112	BASF SE	Thanks to the great  support from government authorities and local communities as well as to the continuous efforts of our employees and partners worldwide the project has been progressing steadily said Haryono Lim Senior Vice President Senior Project New Verbund Site China BASF	Positive	General	11
961		28112	BASF SE	We are confident  to bring the first batch of Made in Zhanjiang products to the market by the end of 2022 as planned BASF applies the highest safety standards and will implement a comprehensive  smart  manufacturing concept at the Verbund site based on cutting-edge technologies	Positive	New Projects	14
962		28112	BASF SE	As of today the project has reached a record of 50000 safe  work hours without a lost  time injury  since commencement	Negative	General	12
963	Negative	28120	Bharat Petroleum Corporation Ltd	A day after it downgraded  Indias sovereign rating to the lowest level global credit ratings agency Moodys Investors Services on Tuesday downgraded  the ratings of major Indian companies to negative 	Negative	Business Performance	5
964		28120	Bharat Petroleum Corporation Ltd	In addition Moodys has affirmed the long-term issuer ratings of Reliance Industries Limited RIL to negative from stable while the outlooks for UPL Corporation Limited UPL Corp and Genpact Limited Genpact remains stable 	Positive	Business Performance	6
965		28120	Bharat Petroleum Corporation Ltd	Under Moodys joint default analysis approach for government-related issuers GRIs like  ONGC OIL IOCL and and BPCL government support is one of the key considerations	Positive	Business Performance	7
966		28120	Bharat Petroleum Corporation Ltd	The ratings of these four GRIs are very sensitive  to a decline  in the rating of their government owner given their close links with the Government of India Moodys said in a statement adding that as a result each GRI has been downgraded  by one notch consistent  with the downgrade  of the sovereign rating	Negative	Business Performance	8
967		28120	Bharat Petroleum Corporation Ltd	For downgrade  of HPCL and PLL Moodys said that HPCLs rating incorporates Moodys expectation of support from the Government of India through ONGC and has accordingly also been downgraded  following the rating action on the sovereign and ONGC	Negative	Business Performance	9
968		28120	Bharat Petroleum Corporation Ltd	The downgrade  of PLL with a negative  outlook follows the rating actions on its key counterparts including IOCL and BPCL	Negative	Business Performance	10
969		28120	Bharat Petroleum Corporation Ltd	The sovereign downgrade  to Baa3 negative  therefore results in the rating downgrades of TCS and Infosys to Baa1 negative  from A3 negative 	Negative	Business Performance	11
970		28120	Bharat Petroleum Corporation Ltd	The affirmation  of RILs Baa2 issuer rating reflects Moodys view that its credit metrics remain appropriately positioned for its rating	Positive	Business Performance	12
971		28120	Bharat Petroleum Corporation Ltd	The change in RILs outlook to negative  from stable  is in line with the downgrade  of the Indian sovereign rating with a negative  outlook and reiterates Moodys view that it cannot be rated more than one notch above the Indian sovereign said a Moodys statement	Negative	Business Performance	13
972		28120	Bharat Petroleum Corporation Ltd	The affirmation  of the Baa3 issuer ratings with a stable  outlook for UPL and Genpact reflects Moodys view that these entities can be rated one notch above the Indian sovereign	Positive	Business Performance	14
973		28120	Bharat Petroleum Corporation Ltd	* Thank  you for subscribing to our newsletter	Positive	General	3
974	Positive	28115	BASF SE	First new mode of action classification from the Herbicide Resistance  Action Committee HRAC since 1985 Luximo soon to provide  farmers in the EU and UK a much-needed tool against grass weed  resistance 	Positive	Business Risk	16
975		28115	BASF SE	In the ongoing effort to combat weed  resistance  unique  modes of action are critical  to protecting crops and the food sources of a growing population	Negative	Business Risk	17
976		28115	BASF SE	Researchers at BASF dedicated  to finding viable solutions to this challenge arrived at Luximo a herbicide which has received the first new mode of action classification from the Herbicide Resistance  Action Committee HRAC since 1985	Positive	General	13
977		28115	BASF SE	Already approved  for sale in Australia in 2019 BASF also expects farmers in the EU and UK to benefit  from this much-needed herbicide in the future	Positive	Market Expansion	4
978		28115	BASF SE	 is an exciting  moment for the whole industry and will offer growers the opportunity to overcome resistance  of the most troublesome grass weeds in their cropping systems stated Rex Liebl Global Product Development Herbicides at BASFs Agricultural Solutions division	Positive	Market Expansion	5
979		28115	BASF SE	Luximo is an essential  complement  to the weed  management toolbox	Positive	General	14
980		28115	BASF SE	It is designed to become the backbone  of effective  and sustainable grass weed  management programs where rotating multiple modes of action is essential  to fight resistance	Positive	General	15
981		28115	BASF SE	Due to its novel  mode of action Luximo has no known cross-resistance	Positive	Business Risk	18
982		28115	BASF SE	It provides soil residual control  against a broad  range of grasses in cereal crops including resistant and difficult  to control  black-grass and ryegrass	Positive	Business Performance	9
983		28115	BASF SE	Luximo is the first active  ingredient in the new HRAC mode of action class Group Q or 30 which stands for the inhibition  of the enzyme family Fatty  Acid Thioesterase FAT 	Negative	New Projects	15
984		28115	BASF SE	These enzymes are vital  for plant cell membrane development and function	Positive	Business Risk	19
985		28115	BASF SE	The HRAC is an international body founded by the agrochemical industry helping  to protect  crop yields and quality worldwide by supporting  efforts in the fight against herbicide-resistant weeds	Positive	Market Expansion	6
986		28115	BASF SE	By collecting assessing and sharing information on weed  resistance  the HRAC acts as a comprehensive  and reliable source for those who feed a growing population	Positive	Business Performance	10
987		28115	BASF SE	Early success  stories of farmers using the Luximo herbicide can be found here	Positive	Business Risk	20
988	Positive	28116	BASF SE	Initial placement of a green corporate bond to finance sustainable  products and projects Attractive  conditions thanks to very solid  financial structure and leading sustainability  position On May 28 2020 BASF successfully  placed bonds with a total volume of 20 billion on the capital market	Positive	Business Performance	11
989		28116	BASF SE	This has a term of 7 years a volume of 10 billion and an annual coupon of 025%; it serves to finance sustainable  products and projects	Positive	Business Performance	12
990		28116	BASF SE	BASF was able  to secure  attractive  conditions thanks to its very solid  financial structure and its leading sustainability  position	Positive	Business Performance	13
991		28116	BASF SE	We are pleased  with the successful  placement	Positive	Business Performance	14
992		28116	BASF SE	The strong  demand from investors for BASF bonds underscores the capital markets confidence  in our solid  financial policies and our sustainability-driven corporate strategy said Dr Hans?Ulrich Engel BASFs Chief Financial Officer	Positive	General	16
993		28116	BASF SE	The initial issue of a green bond now firmly anchors sustainability  in BASFs financing strategy as well BASF has established a framework for financing instruments based on sustainability  criteria	Positive	Market Expansion	7
994		28116	BASF SE	This green finance framework enables BASF to finance sustainable  products or projects offering a clear benefit  to the environment and society with green bonds on the capital market	Positive	Business Performance	15
995		28116	BASF SE	Such bonds fully align with BASFs corporate purpose which reflects what the company stands for: We create chemistry for a sustainable  future	Positive	Business Performance	16
996		28116	BASF SE	BASF wants to contribute  to a world that provides  a viable future with enhanced  quality of life for everyone	Positive	Market Expansion	8
997		28116	BASF SE	This is why the company offers products and solutions that are designed to make the best  use of available resources and help  to overcome new challenges	Positive	General	17
998	Positive	28117	BEML Ltd	Tie-ups through the EoIs will be for products that complement  BEMLs existing products	Positive	Market Expansion	1
999		28117	BEML Ltd	The advantage  for foreign companies will be that no new land will be required to set up factories which could come on the land owned by BEML and BHEL	Positive	General	3
1000	Negative	28119	Bharat Petroleum Corporation Ltd	The state-run oil refiner Bharat Petroleum Corporation Ltd BPCL is expected to report a loss  of Rs 625 crore in the quarter ended March 2020 as compared to a profit of Rs 3120 crore in the December quarter on account of declining  gross  refining margins	Negative	Business Performance	15
1001		28119	Bharat Petroleum Corporation Ltd	Revenues during Q4FY20 is expected to decline  by 18 percent to Rs 60720 crore from Rs 73990 crore in the previous quarter	Negative	Business Performance	16
1002		28119	Bharat Petroleum Corporation Ltd	EBITDA may fall  86 percent on a sequential basis to Rs 645 crore versus Rs 4530 crore while EBITDA margin is likely to witness contraction of almost 500 basis points bps to 1 percent from 61 percent QoQ BPCLs reported gross  refining margins GRM are seen at -$3 per bbl versus $320 per bbl QoQ and versus $270 per bbl YoY Core GRMs are seen at $220 per bbl versus $220 per bbl QoQ and versus $260 per bbl	Negative	Business Performance	17
1003		28119	Bharat Petroleum Corporation Ltd	Crude throughput in Q4FY20 is likely to decline  by 3 percent to 81 mmt	Negative	Business Performance	18
1004		28119	Bharat Petroleum Corporation Ltd	However auto fuel margins are expected to improve  to Rs 530/litre QoQ	Positive	Business Performance	19
1005	Negative	28104	Ashoka Buildcon Ltd	The project is executed by Ashoka Kharar Ludhiana Road SPV a wholly-owned subsidiary of Ashoka Concessions  a subsidiary of the company	Negative	New Projects	1
1006		28104	Ashoka Buildcon Ltd	Consequent to the declaration of CoD the SPV is eligible for receipt of annuity payments from NHAI within six months from the date of achievement  of CoD ie six months from 31 March 2020	Positive	Business Performance	1
1007	Positive	28108	BASF SE	PLANT breeder BASF already well  known in the Australian breeding sector for its canola lines has officially named its first Aussie wheat variety 	Positive	New Projects	16
1008		28108	BASF SE	BASF and its commercial partner Seednet announced this week that growers will have access to the new variety  Ascot as of next year	Positive	General	18
1009		28108	BASF SE	At present it has APW classification but breeders are hopeful  that with further testing that may even push into the Australian Hard AH bracket	Positive	Business Performance	17
1010		28108	BASF SE	Trials were conducted by Australian Grain and Forage AGF Seeds at Smeaton in Victorias Central Highlands region and officials expect the variety  will do well  in other similar cold  wet environments such as NSWs southern slopes and South Australias south-eastern region	Positive	New Projects	17
1011		28108	BASF SE	Yields for the variety  were excellent  in trials and BASF and Seednet are hopeful  of good  uptake	Positive	New Projects	18
1012		28108	BASF SE	Seednet national manager Simon Crane said the variety  had showed best  potential  in long season or irrigated scenarios	Positive	General	19
1013		28108	BASF SE	It is certainly capable  of yielding really well  in the right  environment Mr Crane said	Positive	General	20
1014		28108	BASF SE	We look forward  to producing a range of exciting wheat varieties in the next few years Mr Hall said	Positive	Market Expansion	9
1015		28108	BASF SE	BASF is already well  established as an Australian breeder of canola seed with several ground-breaking hybrid varieties with innovative traits such as PodGuard and TruFlex under the InVigor brand	Positive	New Projects	19
1016	Positive	28109	BASF SE	Production at the plant will commence  in 2022 and supply the market of biopolymers	Positive	Business Performance	18
1017		28109	BASF SE	Our successful bio-polyester ecoflex and the innovative ecovio are already giving us significant  participation in this growing market	Positive	New Projects	20
1018		28109	BASF SE	The additional available PBAT capacities will strengthen  our position said Olivier Ubrich head of BASFs global business unit Specialty Polymers	Positive	Market Expansion	10
1019	Positive	28111	BASF SE	BASF has kicked off the piling work of the first plants of its smart  Verbund project in Zhanjiang Guangdong China	Positive	New Projects	21
1020		28111	BASF SE	This came as another important  milestone in the development of the companys US$10 billion investment project since its official commencement in November 2019	Positive	Business Performance	19
1021		28111	BASF SE	The first plants will produce engineering plastics and thermoplastic polyurethane TPU to serve the increasing needs of various growth  industries in the southern China market and throughout Asia	Positive	New Projects	22
1022		28111	BASF SE	Thanks to the great  support from government authorities and local communities as well as to the continuous efforts of our employees and partners worldwide the project has been progressing steadily said Haryono Lim Senior Vice President Senior Project New Verbund Site China BASF	Positive	General	21
1023		28111	BASF SE	We are confident  to bring the first batch of Made in Zhanjiang products to the market by the end of 2022 as planned BASF applies the highest safety standards and will implement a comprehensive  smart  manufacturing concept at the Verbund site based on cutting-edge technologies	Positive	New Projects	23
1024		28111	BASF SE	As of today the project has reached a record of 50 000 safe  work hours without a lost  time injury  since commencement	Negative	Business Performance	20
1025	Positive	28098	ABB Ltd	Leading Canadian forest product company Chantiers Chibougamau chiboucom has selected technology leader ABB to help  overhaul its Nordic Kraft pulp mill in Lebel-Sur-Quevillion in northern Quebec	Positive	New Projects	75
1026		28098	ABB Ltd	This includes ABBs Web Imaging System WIS and Web Monitoring System WMS into the ABB Ability System 800xA distributed control  system DCS	Positive	Market Expansion	41
1027		28098	ABB Ltd	ABB will provide  a comprehensive  service contract and remote connection for diagnostic and service activity	Positive	New Projects	76
1028		28098	ABB Ltd	The project will transform  the Nordic Kraft mill which had been dormant for 12 years prior to its acquisition by Chantiers Chibougamau in 2018	Positive	Business Performance	33
1029		28098	ABB Ltd	It will become a modern  efficient  and fully integrated  digital site equipped  for the first time with complete quality control 	Positive	New Projects	77
1030		28098	ABB Ltd	The new solutions will accelerate  Nordic Krafts issue identification and produce semi-autonomous responses to conditions leading to fewer quality rejects 	Negative	General	61
1031		28098	ABB Ltd	The high value and quality of ABB solutions together with our stepwise approach and ability to complete a tight  turnaround were the key to this order	Positive	New Projects	78
1032		28098	ABB Ltd	We worked closely with the mill to ensure  that everything we supply has a clear benefit  in terms of quality control  and ease  of operability	Positive	Business Performance	34
1033		28098	ABB Ltd	Our suite of leading technology coupled with remote monitoring diagnostic and issue resolution means Nordic Kraft can head off problems  before they arise and optimize  production to make more on spec kraft pulp As part of the ABB Ability QMS the order includes a new NP1200 scanner with online sensors for moisture brightness and ABBs revolutionary  Basis Weight Sensor which offers industry-leading levels of accuracy and reliability in basis weight measurements	Positive	Business Risk	15
1034		28098	ABB Ltd	The Basis Weight Sensor provides  the detailed information needed for optimal  machine direction MD and cross direction CD weight control 	Positive	Business Risk	16
1035		28098	ABB Ltd	The QMS also includes a WIS installation with Web Imaging Dirt  Count and a WMS with eight cameras all designed to provide  operators with full visibility over production with integrated  online measurement process and quality controls and defect detection	Positive	New Projects	79
1036		28098	ABB Ltd	We wanted a reliable  and flexible  way to make this mill inoperative for 15 years more productive  and profitable said Dany Bellemare Senior Electrical Engineer and Reliability/Plant Upgrading Project Manager Nordic Kraft in Lebel-sur-Quévillon	Positive	Business Performance	35
1037		28098	ABB Ltd	We were impressed  by ABBs commitment to demonstrating the value in every part of their proposed solution and look forward  to a long and successful collaboration Chantiers Chibougamau Ltée a family business founded in 1961 employs nearly 600 people in Chibougamau a quarter of the working population in this northern Quebec municipality	Positive	New Projects	80
1038		28098	ABB Ltd	ABB abbcom/pulpandpaper is a trusted  partner and leading supplier to the pulp and paper industry offering deep expertise  and a comprehensive  portfolio of integrated  digital solutions automation and electrification systems industry-focused products and comprehensive  services to help  our customers optimize  all phases of the papermaking process	Positive	Market Expansion	42
1039		28098	ABB Ltd	We are committed  to serving packaging paper tissue and pulp producers to help  drive availability performance cost and quality improvements 	Positive	New Projects	81
1040		28098	ABB Ltd	With a history of innovation  spanning more than 130 years ABB has four customer-focused globally leading businesses: Electrification Industrial Automation Motion and Robotics & Discrete Automation supported  by the ABB Ability digital platform	Positive	Market Expansion	43
1041	Positive	28110	BASF SE	The original alkyl polyglycoside APG from BASF;  All-round surfactants with proven  mildness for personal care cleaning efficiency  and industrial applications;  Vast majority of APG surfactant range in Europe from certified sustainable  palm-based raw material	Positive	New Projects	24
1042		28110	BASF SE	Derived from the renewable raw materials starch and vegetal oils APGs are all-round surfactants that offer mildness and foam quality for a broad  variety  of formulation concepts in personal care and home care as well as in industrial applications	Positive	General	22
1043		28110	BASF SE	Initially built and operated by Henkel KGaA the ownership of the plant switched to Cognis in 2000 which was acquired  by BASF in 2011	Positive	Market Expansion	11
1044		28110	BASF SE	Proven  mildness for personal care As part of its Care Creations portfolio BASF offers its 100 percent plant-based APG line under the tradename Plantacare	Positive	Business Risk	21
1045		28110	BASF SE	The all-round sugar surfactants known for their excellent  ecological and toxicological profile proven  mildness and functional properties are suitable  for a broad  field of personal care cleansing applications ranging from shower gels and liquid soaps to shampoos facial wash baby cleansing products toothpastes and wet wipes	Positive	General	23
1046		28110	BASF SE	Various tests have confirmed the very low irritation  potential  of Plantacare surfactants making them an ideal  choice especially also for mild cleansing products with a high degree of skin compatibility	Positive	Business Risk	22
1047		28110	BASF SE	BASF has been the first supplier in Europe to offer its complete Plantacare range as well as related products and compositions from certified sustainable  palm-based raw material with Roundtable on Sustainable  Palm Oil RSPO	Positive	New Projects	25
1048		28110	BASF SE	Plantacare from BASF is suitable  for use in end products formulated according to the European Ecolabels EU Ecolabel Nordic Ecolabel and Bra Miljöval and it is approved  by the natural and organic cosmetic standards COSMOS and NATRUE	Positive	New Projects	26
1049		28110	BASF SE	Plantacare is 100 percent of natural origin and therefore perfectly  fits the requirements of ISO Norm 16128	Positive	Business Performance	21
1050		28110	BASF SE	Our APGs meet modern  requirements for cleansing products and are still a trendsetting raw material for the personal care and the detergent and cleaning industry as well as for industrial applications	Positive	Business Risk	23
1051		28110	BASF SE	Consumer and customer expectations for sustainability  and natural ingredients remain to be a strong  driver of the market development says Christian Somigliana Head of Market Development Personal Care Europe	Positive	New Projects	27
1052		28110	BASF SE	Easy  formulation for highly concentrated  liquid products in the detergent and cleaning industry Glucopon types convince by solving many performance related problems  in the field of Home Care and Industrial & Institutional Cleaning	Positive	Business Risk	24
1053		28110	BASF SE	Products of BASFs Glucopon line combine in an excellent  manner the performance properties of modern  surfactants with current and future demands for environmentally friendly  solutions	Positive	Market Expansion	12
1054		28110	BASF SE	For example Glucopon 650 satisfies  expectations both for perfect  cleaning results and environmental responsibility	Positive	New Projects	28
1055		28110	BASF SE	The alkyl polyglycoside also has outstanding  properties: it is compatible  with plastics GHS CLP label-free meets the requirements of various eco-labels eg EU Ecolabel and Nordic Swan is easy  to process very low foaming and suitable  for use at high concentrations	Positive	New Projects	29
1056		28110	BASF SE	Effective  additive  in industrial formulations As part of BASFs Agnique product range alkyl polyglycosides advance the performance of agrochemical formulations: by offering high compatibility to salts and by providing an excellent  uptake by plants the surfactant functions as an efficient  adjuvant in crop protection  products	Positive	Market Expansion	13
1057		28110	BASF SE	The product is applicable in various industries such as coatings adhesives and rubber industry and shows a superior  environmental profile	Positive	New Projects	30
1058		28110	BASF SE	The BASF division Care Chemicals care-chemicalsbasfcom offers a broad  range of ingredients for personal care home care industrial & institutional cleaning and technical applications	Positive	New Projects	31
1059		28110	BASF SE	We are a leading global supplier for the cosmetics industry as well as the detergents and cleaners industry and support our customers with innovative  and sustainable  products solutions and concepts	Positive	Business Performance	22
1060		28110	BASF SE	The divisions high-performance product portfolio includes surfactants emulsifiers polymers emollients chelating agents cosmetic active  ingredients and UV filters	Positive	Business Performance	23
1061		28110	BASF SE	We have production and development sites in all regions and are expanding  our presence in emerging  markets	Positive	Business Performance	24
1062		28110	BASF SE	About BASF At BASF basfcom we create chemistry for a sustainable  future	Positive	New Projects	32
1063		28110	BASF SE	We combine economic success  with environmental protection  and social responsibility	Positive	New Projects	33
1064		28110	BASF SE	More than 117000 employees in the BASF Group work on contributing  to the success  of our customers in nearly all sectors and almost every country in the world	Positive	General	24
1065	Positive	28091	ABB Ltd	Continuous evaluation allows for the cloud-to-cloud transfer of engine data from edge computing platforms to Tekomar XPERT said Pascal Reolon Product Manager ABB Turbocharging		New Projects	82
1066		28091	ABB Ltd	The result will be faster  access to more engine data from which to draw even quicker  insights to optimise engine	Positive	General	62
1067	Positive	28092	ABB Ltd	Read Article Technology giant ABB will supply RCCPL with ABB Ability Expert Optimizer an advanced  process control  solution for controlling stabilizing and optimizing industrial processes and which will allow the cement producer to increase  production minimize carbon footprint and reduce  fuel consumption to meet energy usage goals	Positive	Market Expansion	44
1068		28092	ABB Ltd	The 390 million tonnes per year greenfield plant at Mukutban Yavatmal in the Indian state of Marharashtra is about 400 kilometers north of Mumbai and incorporates a 40 MW captive power plant and a 1060 MW heat recovery  system	Positive	New Projects	83
1069		28092	ABB Ltd	ABB will also provide  the new cement plant with electrification infrastructure items such as MV Switchgear with MV relays on IEC 61850 communication and LV Switchgear with ABB UMC1003 intelligent  motor controllers which combine intelligent  motor protection  and control  functions and fieldbus communication and fault  diagnosis in a single device	Positive	Market Expansion	45
1070		28092	ABB Ltd	Early involvement in the development of this greenfield project means we can bring a holistic  approach to the design of the complete system said Krishnadas Manjaparra business head of industrial automation process industries for South Asia Middle-East and Africa at ABB	Positive	New Projects	84
1071		28092	ABB Ltd	We have been able  to draw from our strong  portfolio of automation and electrification products and solutions and bring varied insights from our years of experience working with small operators global players and the turnkey execution of large  projects	Positive	Business Performance	36
1072		28092	ABB Ltd	We have an established track record in India where more than half of cement plants already run with the ABB automation systems and which ensure  maximum efficiency  and run consistently  shift to shift irrespective of operator expertise 	Positive	New Projects	85
1073		28092	ABB Ltd	What makes us unique is also our newly launched ABB Ability Collaborative  Operations Center in India that allows us to provide  operations support during the post-commissioning life cycle of the plant to keep the productivity and efficiency  at peak levels continuously	Positive	New Projects	86
1074		28092	ABB Ltd	The ABB digital solutions and electrification products will be integrated  with ABB Ability System 800xA which is ranked by ARC advisory group as the #1 DCS distributed control  system platform in the market globally for the 20th consecutive year	Positive	Market Expansion	46
1075		28092	ABB Ltd	ABB Ability System 800xA is also an electrical control  system a safety system and a collaboration enabler with the capacity to improve  engineering efficiency  operator performance and asset utilization	Positive	New Projects	87
1076		28092	ABB Ltd	If you have an interesting  article / experience / case study to share please get in touch with us at [email protected]	Positive	Business Risk	17
1077	Positive	28097	ABB Ltd	Technology leader ABB will supply RCCPL with ABB Ability Expert Optimizer an advanced  process control  solution for controlling stabilising and optimising industrial processes which will allow the cement producer to increase  production minimise its carbon footprint and reduce  fuel consumption to meet energy usage goals	Positive	Market Expansion	47
1078		28097	ABB Ltd	The 390 million tpy greenfield plant at Mukutban Yavatmal in the Indian state of Marharashtra is about 400 km north of Mumbai and incorporates a 40 MW captive power plant and a 1060 MW heat recovery  system	Positive	New Projects	88
1079		28097	ABB Ltd	ABB will also provide  the new cement plant with electrification infrastructure items such as MV Switchgear with MV relays on IEC 61850 communication and LV Switchgear with ABB UMC1003 intelligent  motor controllers which combine intelligent  motor protection  and control  functions and fieldbus communication and fault  diagnosis in a single device	Positive	Market Expansion	48
1080		28097	ABB Ltd	The ABB digital solutions and electrification products will be integrated  with ABB Ability System 800xA which is ranked by ARC advisory group as the #1 DCS distributed control  system platform in the market globally for the 20th consecutive year	Negative	Market Expansion	49
1081		28097	ABB Ltd	ABB Ability System 800xA is also an electrical control  system a safety system and a collaboration enabler with the capacity to improve  engineering efficiency  operator performance and asset utilisation	Positive	New Projects	89
1082		28097	ABB Ltd	Expert Optimizer uses linear and non-linear model predictive control  and neural networks to manage critical  plant components including kiln alternative fuels mills and blending	Negative	General	63
1083		28097	ABB Ltd	It can find the best  operating conditions to maximise output and can immediately detect deviations among various processes in cement production	Positive	General	64
1084		28097	ABB Ltd	This capability  is backed by the remote ABB Ability Collaborative  Operations Centre support from where experts continually monitor the system for any abnormality and can help  retune the system remotely for new process conditions	Positive	Business Risk	18
1085		28097	ABB Ltd	We have been able  to draw from our strong  portfolio of automation and electrification products and solutions and bring varied insights from our years of experience working with small operators global players and the turnkey execution of large  projects	Positive	New Projects	90
1086		28097	ABB Ltd	We have an established track record in India where more than half of cement plants already run with the ABB automation systems and which ensure  maximum efficiency  and run consistently  shift to shift irrespective of operator expertise 	Positive	New Projects	91
1087		28097	ABB Ltd	What makes us unique is also our newly launched ABB AbilityTM Collaborative  Operations Centre in India that allows us to provide  operations support during the post-commissioning life cycle of the plant to keep the productivity and efficiency  at peak levels continuously	Positive	New Projects	92
1088		28097	ABB Ltd	ABB AbilityTM Expert Optimizer is part of the ABB AbilityTM CementOptimize portfolio of digitally connected products services and solutions that enable  modern  cement plants to maximise visibility reliability productivity and energy efficiency  and optimise performance	Positive	Market Expansion	50
1089	Positive	28101	Acer Inc	The updated Acer Nitro 5 which Acer announced back in April is finally available to purchase and as we said at launch it looks like  an impressive  package that Acer has put together for the 2020 version of the Nitro 5	Positive	New Projects	88
1090		28101	Acer Inc	While we havent completed our review of the updated model it will again fall  into consideration as one of the best  cheap  gaming laptops with its starting price of $59999	Negative	Business Performance	46
1091		28101	Acer Inc	The biggest  change for those that may have taken a look at the Nitro 5 last year is the reduction in screen size from 173 inches to a much more manageable  156 inches which should also help  with the bulky  size of the laptop that was one of our reviewers few complaints  with the 2019 Nitro 5	Positive	Business Performance	47
1092		28101	Acer Inc	The smaller screen also offers some much-improved specs with the option for either a 120Hz or 144Hz refresh  rate and 3ms response times	Positive	General	79
1093		28101	Acer Inc	Brightness is also getting a slight boost  to 300 nits up from 275	Positive	Business Performance	48
1094		28101	Acer Inc	They are still sticking to a full HD panel but again in this price range that is to be expected and with the rest of the spec bumps  this should still lead to a noticeable improvement  for gamers	Negative	Business Performance	49
1095		28101	Acer Inc	Thermal performance is another area that Acer looked to address with the 2020 version of the Nitro 5 with a dual-fan system and more extensive  heat vents that Acer claims add up to a 25% improvement 	Positive	Business Performance	50
1096		28101	Acer Inc	The rest of the internals include M2 NVMe PCIe SSDs up to 32GB of RAM Wi-Fi 6 and Killer Ethernet E2600 to ensure  that you have the fastest  connectivity options available	Positive	Market Expansion	29
1097	Positive	28105	Bajaj Electricals Ltd	Trading Members of the Exchange are hereby informed  that the under mentioned new securities of Bajaj Electricals Ltd Scrip Code: 500031 are listed and permitted to trade in with effect from Wednesday June 3 2020	Positive	Business Performance	1
1098		28105	Bajaj Electricals Ltd	ISIN INE193E01025 Distinctive  Numbers 113767708 to 113767714	Positive	General	1
1099	Positive	28096	ABB Ltd	ABB will supply RCCPL with ABB Ability Expert Optimizer an advanced  process control  solution for controlling stabilising and optimising industrial processes and which will allow the cement producer to increase  production minimise carbon footprint and reduce  fuel consumption to meet energy usage goals	Positive	Market Expansion	51
1100		28096	ABB Ltd	The 39Mta greenfield plant at Mukutban Yavatmal in Maharashtra is about 400km north of Mumbai and incorporates a 40MW captive power plant and a 1060MW heat recovery  system	Positive	New Projects	93
1101		28096	ABB Ltd	ABB will also provide  the new cement plant with electrification infrastructure items such as medium-voltage switchgear with medium-voltage relays on IEC 61850 communication and low-voltage switchgear with ABB UMC1003 intelligent  motor controllers that combine intelligent  motor protection  and control  functions with fieldbus communication and fault  diagnosis in a single device	Positive	Market Expansion	52
1102		28096	ABB Ltd	The ABB digital solutions and electrification products will be integrated  with ABB Ability System 800xA DCS distributed control  system platform in the market globally for the 20th consecutive year	Positive	Market Expansion	53
1103	Positive	28083	ABB Ltd	La solución ABB Ability Advanced  Process Control  para el sector del metal mejora la estabilidad de procesos la producción y la calidad al tiempo que reduce los costes ABB presenta ABB Abilit Advanced  Process Control  APC su probada	Positive	Market Expansion	54
1104		28083	ABB Ltd	e implementación de un modelo de control  predictivo	Positive	New Projects	94
1105		28083	ABB Ltd	Advanced  Process Control  para metales emplea un modelo de control  predictivo para crear el gemelo digital de alguno de los procesos de fabricación del acero usando datos	Positive	Business Risk	19
1106		28083	ABB Ltd	Advanced  Process Control  para el sector del metal supone	Positive	New Projects	95
1107		28083	ABB Ltd	ha dejado patente su valor  a lo largo de más de 20 años en otras industrias de procesos como minería cemento petróleo y gas declaró Tarun Mathur director internacional de productos en Metals Digital ABB	Positive	Business Risk	20
1108		28083	ABB Ltd	Dentro de la cartera de digitalización de ABB Ability la solución Advanced  Process Control  para metales utiliza datos en tiempo real procedentes de sistemas	Positive	New Projects	96
1109		28083	ABB Ltd	de control  como ABB Ability System 800xA	Positive	New Projects	97
1110		28083	ABB Ltd	o alternativas de terceros que emplean protocolos de comunicación abierta por ejemplo OPC OLE para el control  de procesos	Positive	Business Risk	21
1111	Positive	28088	ABB Ltd	ABB to upgrade drives and integrate quality control  at new Nordic Kraft pulp mill in Quebec Press release	Positive	New Projects	98
1112		28088	ABB Ltd	Rapid revamp of dormant mill will provide  cutting-edge digital solutions to automate operations and optimize  performance Leading Canadian forest product company Chantiers Chibougamau has selected technology leader ABB to help  overhaul its Nordic Kraft pulp mill in Lebel-Sur-Quevillion in northern Quebec	Positive	General	65
1113		28088	ABB Ltd	This includes ABBs Web Imaging System WIS and Web Monitoring System WMS into the ABB Ability System 800xA distributed control  system DCS	Positive	Market Expansion	55
1114		28088	ABB Ltd	ABB will provide  a comprehensive  service contract and remote connection for diagnostic and service activity	Positive	New Projects	99
1115		28088	ABB Ltd	The project will transform  the Nordic Kraft mill which had been dormant for 12 years prior to its acquisition by Chantiers Chibougamau in 2018	Positive	Business Performance	37
1116		28088	ABB Ltd	It will become a modern  efficient  and fully integrated  digital site equipped  for the first time with complete quality control 	Positive	New Projects	100
1117		28088	ABB Ltd	The new solutions will accelerate  Nordic Krafts issue identification and produce semi-autonomous responses to conditions leading to fewer quality rejects 	Negative	General	66
1118		28088	ABB Ltd	The high value and quality of ABB solutions together with our stepwise approach and ability to complete a tight  turnaround were the key to this order	Positive	New Projects	101
1119		28088	ABB Ltd	We worked closely with the mill to ensure  that everything we supply has a clear benefit  in terms of quality control  and ease  of operability	Positive	Business Performance	38
1120		28088	ABB Ltd	Our suite of leading technology coupled with remote monitoring diagnostic and issue resolution means Nordic Kraft can head off problems  before they arise and optimize  production to make more on spec kraft pulp NP1200 scanner As part of the ABB Ability QMS the order includes a new NP1200 scanner with online sensors for moisture brightness and ABBs revolutionary  Basis Weight Sensor which offers industry-leading levels of accuracy and reliability in basis weight measurements	Positive	Business Risk	22
1121		28088	ABB Ltd	The Basis Weight Sensor provides  the detailed information needed for optimal  machine direction MD and cross direction CD weight control 	Positive	Business Risk	23
1122		28088	ABB Ltd	The QMS also includes a WIS installation with Web Imaging Dirt  Count and a WMS with eight cameras all designed to provide  operators with full visibility over production with integrated  online measurement process and quality controls and defect detection	Positive	New Projects	102
1123		28088	ABB Ltd	We wanted a reliable  and flexible  way to make this mill inoperative for 15 years more productive  and profitable said Dany Bellemare Senior Electrical Engineer and Reliability/Plant Upgrading Project Manager Nordic Kraft in Lebel-sur-Quévillon	Positive	Business Performance	39
1124		28088	ABB Ltd	We were impressed  by ABBs commitment to demonstrating the value in every part of their proposed solution and look forward  to a long and successful collaboration Chantiers Chibougamau Ltée a family business founded in 1961 employs nearly 600 people in Chibougamau a quarter of the working population in this northern Quebec municipality	Positive	New Projects	103
1125		28088	ABB Ltd	ABB is a trusted  partner and leading supplier to the pulp and paper industry offering deep expertise  and a comprehensive  portfolio of integrated  digital solutions automation and electrification systems industry-focused products and comprehensive  services to help  our customers optimize  all phases of the papermaking process	Positive	Market Expansion	56
1126		28088	ABB Ltd	We are committed  to serving packaging paper tissue and pulp producers to help  drive availability performance cost and quality improvements 	Positive	New Projects	104
1127		28088	ABB Ltd	With a history of innovation  spanning more than 130 years ABB has four customer-focused globally leading businesses: Electrification Industrial Automation Motion and Robotics & Discrete Automation supported  by the ABB Ability digital platform	Positive	Market Expansion	57
1128		28088	ABB Ltd	The project will transform  the Nordic Kraft mill which had been dormant for 12 years prior to its acquisition by Chantiers Chibougamau in 2018	Positive	Business Performance	40
1129		28088	ABB Ltd	It will become a modern  efficient  and fully integrated  digital site equipped  for the first time with complete quality control 	Positive	New Projects	105
1130		28088	ABB Ltd	The new solutions will accelerate  Nordic Krafts issue identification and produce semi-autonomous responses to conditions leading to fewer quality rejects 	Negative	General	67
1131		28088	ABB Ltd	The high value and quality of ABB solutions together with our stepwise approach and ability to complete a tight  turnaround were the key to this order	Positive	New Projects	106
1132		28088	ABB Ltd	We worked closely with the mill to ensure  that everything we supply has a clear benefit  in terms of quality control  and ease  of operability	Positive	Business Performance	41
1133		28088	ABB Ltd	Our suite of leading technology coupled with remote monitoring diagnostic and issue resolution means Nordic Kraft can head off problems  before they arise and optimize  production to make more on spec kraft pulp NP1200 scanner As part of the ABB Ability QMS the order includes a new NP1200 scanner with online sensors for moisture brightness and ABBs revolutionary  Basis Weight Sensor which offers industry-leading levels of accuracy and reliability in basis weight measurements	Positive	Business Risk	24
1134		28088	ABB Ltd	The Basis Weight Sensor provides  the detailed information needed for optimal  machine direction MD and cross direction CD weight control 	Positive	Business Risk	25
1135		28088	ABB Ltd	The QMS also includes a WIS installation with Web Imaging Dirt  Count and a WMS with eight cameras all designed to provide  operators with full visibility over production with integrated  online measurement process and quality controls and defect detection	Positive	New Projects	107
1136		28088	ABB Ltd	We wanted a reliable  and flexible  way to make this mill inoperative for 15 years more productive  and profitable said Dany Bellemare Senior Electrical Engineer and Reliability/Plant Upgrading Project Manager Nordic Kraft in Lebel-sur-Quévillon	Positive	Business Performance	42
1137		28088	ABB Ltd	We were impressed  by ABBs commitment to demonstrating the value in every part of their proposed solution and look forward  to a long and successful collaboration Chantiers Chibougamau Ltée a family business founded in 1961 employs nearly 600 people in Chibougamau a quarter of the working population in this northern Quebec municipality	Positive	New Projects	108
1138		28088	ABB Ltd	ABB is a trusted  partner and leading supplier to the pulp and paper industry offering deep expertise  and a comprehensive  portfolio of integrated  digital solutions automation and electrification systems industry-focused products and comprehensive  services to help  our customers optimize  all phases of the papermaking process	Positive	Market Expansion	58
1139		28088	ABB Ltd	We are committed  to serving packaging paper tissue and pulp producers to help  drive availability performance cost and quality improvements 	Positive	New Projects	109
1140		28088	ABB Ltd	With a history of innovation  spanning more than 130 years ABB has four customer-focused globally leading businesses: Electrification Industrial Automation Motion and Robotics & Discrete Automation supported  by the ABB Ability digital platform	Positive	Market Expansion	59
1141	Positive	28090	ABB Ltd	How important  is remote connectivity in mining during the Covid-19 outbreak?	Positive	General	68
1142		28090	ABB Ltd	Remote connectivity and operation have been important  trends in mining for some time due to safety declining  ore resources and of course operational optimisation	Negative	General	69
1143		28090	ABB Ltd	This allows specific maintenance-oriented algorithms to help  predict possible equipment failures  and notify mine operators of the need to resolve this and thereby avoid costly downtime	Negative	Business Risk	26
1144		28090	ABB Ltd	Another key remote capability  is augmented reality AR which overlays computer-generated information data images video or other content onto the real-world environment through smart  glasses or mixed reality devices	Positive	New Projects	110
1145		28090	ABB Ltd	Report  Updated twice a week Understanding the Covid-19 outbreak  the economic impact  and implications for specific sectors Get the free  report	Negative	Business Performance	43
1146		28090	ABB Ltd	Our parent business intelligence  company YC:	Positive	General	70
1147		28090	ABB Ltd	What kind of remote services and digital solutions does ABB provide  for mining?	Positive	New Projects	111
1148		28090	ABB Ltd	ABB Ability Asset Vista Condition Monitoring for mining is a digital application that enables mine operators to evaluate precise  maintenance needs in mines by pulling together previously disparate data about the condition of various production equipment	Positive	Business Risk	27
1149		28090	ABB Ltd	It offers operations automation and maintenance personnel in the mining industry a complete overview of their production assets condition helping  to increase  process efficiency  avoid unnecessary  maintenance reduce  exposure to hazardous  areas and improve  time to repair	Positive	General	71
1150		28090	ABB Ltd	One example of remote servicing is ABBs Ability Remote Insights which is a new AR platform designed to improve  response times extend asset lifecycles improve  production performance through increased  availability and productivity and ensure operational excellence	Positive	General	72
1151		28090	ABB Ltd	This means someone can sit in an office using a mixed reality device along with a member of personnel on site in a remote location and working together they can share documentation and expertise  from thousands of miles apart	Positive	New Projects	112
1152		28090	ABB Ltd	Do you see impact  on recruitment in your company due to COVID-19 pandemic?	Negative	General	73
1153		28090	ABB Ltd	Increased  hiring	Positive	General	74
1154		28090	ABB Ltd	No impact  Recruitment on hold	Negative	General	75
1155		28090	ABB Ltd	What advice would you give to mining operators currently trying to improve  their remote services and staff training process?	Positive	General	76
1156		28090	ABB Ltd	Weve seen that mining companies with a culture that fosters innovation  and encourages new ways of thinking and openness  to new ideas have had a great  deal of success  with the transition to remote services and operations	Positive	Market Expansion	60
1157		28090	ABB Ltd	ABB Ability Operations Management System improves  responsiveness to unplanned events and reduces production variability through all the mine stages by integrating short interval control  and closed loop scheduling into a single digital platform	Positive	Business Performance	44
1158		28090	ABB Ltd	This helps  mine operators and planners make better  decisions faster  ensuring ongoing operation of the mine and increased  productivity	Positive	General	77
1159		28090	ABB Ltd	Equipment availability is also improved  by moving from a reactive to a predictive maintenance model	Positive	Business Performance	45
1160		28090	ABB Ltd	The shifting skill  profile is an important  consideration  hardware service technicians remain critical  but workers increasingly need digital and planning skills and as mines evolve in other ways understanding concepts of say electrification also becomes important 	Positive	General	78
1161		28090	ABB Ltd	ABB can help  with training of staff and also uses digital technologies to deliver training services to upskill people in maintenance	Positive	General	79
1162		28090	ABB Ltd	Companies have started and will continue to reinvent themselves through digital technologies that enable  seamless  deployment of continuous reliable  and scalable  processes at an optimised cost	Positive	Market Expansion	61
1163		28090	ABB Ltd	Aligning people process data and tools is allowing businesses to achieve excellence and deliver safe  dependable and profitable production	Positive	Business Performance	46
1164		28090	ABB Ltd	Remote operations are a natural extension of the digital mine and a move to remote-enabled solutions is only likely to accelerate  and become more established in the current climate	Positive	Market Expansion	62
1165		28090	ABB Ltd	Internet infrastructure and capacity is the backbone  to remote connectivity and as we are all discovering working from home can be as important  to invest in within cities as in the remote areas in which many mines are situated	Positive	General	80
1166		28090	ABB Ltd	Site operation and specialist technician roles will still be essential 	Positive	General	81
1167		28090	ABB Ltd	We may see a shift to more remote operations and with it a skill  set shift but there will be a combination of on-site and remote personnel not one extreme or another	Positive	New Projects	113
1168		28090	ABB Ltd	Digital presently does not complete the majority of mechanical maintenance but with improvement  acceptance and new robotic applications this will improve  as costs come down	Positive	New Projects	114
1169	Positive	28072	ABB Ltd	ABB introduces its tried and trusted  ABB Ability Advanced  Process Control  solution to the metals industry promising accurate modelling of process behaviours to achieve greater process stability  bringing improved  product quality output and cost savings 	Positive	Market Expansion	63
1170		28072	ABB Ltd	The solution uses straightforward  design and deployment of model predictive control  MPC and analytics to enable  a high level of automation and optimisation	Positive	New Projects	115
1171		28072	ABB Ltd	ABB Ability Advanced  Process Control  for metals employs Model Predictive Control  MPC to create digital twins of many key steel production processes using process data to predict behaviour over time	Positive	New Projects	116
1172		28072	ABB Ltd	Acting as an autopilot the solution drives the process towards more profitable  operation via modelling and optimisation techniques	Positive	New Projects	117
1173		28072	ABB Ltd	In addition to increased  output improved  quality and reduced input costs the solution also reduces the need for operators to continuously monitor and modify processes around the clock	Positive	Business Performance	47
1174		28072	ABB Ltd	The introduction of ABB Ability Advanced  Process Control  for metals is a momentous  development for steel producers but also a well-established solution demonstrating value for over 20 years in other process industries such as mining cement oil and gas said Tarun Mathur Global Product Manager Metals Digital at ABB	Positive	Market Expansion	64
1175		28072	ABB Ltd	As one of the very few companies currently providing MPC-based modelling and optimisation solutions to the steel industry we look forward  to bringing the benefits  of improved  resource efficiency  output and quality to our metals customers Part of the ABB Ability digitalisation portfolio Advanced  Process Control  for metals utilises real-time data from control  systems such as ABB Ability System 800xA or third-party alternatives using open communications protocols such as OPC OLE for Process Control 	Positive	Market Expansion	65
1176		28072	ABB Ltd	The solution offers metals producers a customisable toolbox that can be applied to a variety  of process applications which can be developed in line with customer needs	Positive	Market Expansion	66
1177		28072	ABB Ltd	At launch three powerful  APC applications are currently available for metals customers aimed at optimising performance of: - Pellet plant indurating machine burners - Pellet plant dryer - Raw material grinding mills	Positive	New Projects	118
1178		28072	ABB Ltd	Two of these applications have already been deployed at a steel plant in India demonstrating significant benefits 	Positive	New Projects	119
1179		28072	ABB Ltd	At the pellet plant indurating machine burner the customer reports a 15 percent reduction in standard deviation  for indurating machine temperature profile resulting in improved  pellet quality and reduced fuel consumption	Negative	Business Performance	48
1180		28072	ABB Ltd	At the pellet plant dryer the customer is able  to control  the outlet temperature more precisely  even with large process delays  and disturbances in feed rate	Positive	Business Risk	28
1181		28072	ABB Ltd	Customers using ABBs APC solutions in other process industries such as mining and cement report significant advantages  with data from more than 300 installations indicating typical benefits  of 2-3 percent increased  output; 1-2 percent decreased  fuel consumption; 2-3 percent reduced electricity consumption and reduction in quality variability of between 10- and 20 percent	Positive	Business Performance	49
1182	Negative	28077	Acer Inc	Acer India on Monday announced the latest addition to its thin  and light notebook series with Acer Swift  3 at a starting price of Rs 59999	Negative	Business Performance	51
1183		28077	Acer Inc	Acer Swift  3 houses a narrow-bezel display offering 8273 per cent screen-to-body ratio with a 14-inch Full HD IPS display and 1595 mm thin  chassis	Negative	Business Performance	52
1184		28077	Acer Inc	It features Dual-band WIFI-6 which aims to improve  the average network throughput by up to 3 times and reduces latency  up to 75 per cent compared to WiFi-5	Negative	General	80
1185		28077	Acer Inc	The device is equipped  with Windows 10 Microsoft Office 2019 DTS Audio and micro-speaker distortion prevention  for the optimum  sound experience	Positive	General	81
1186	Positive	28079	Acer Inc	Acer one of Indias leading laptop and computing brands has unveiled its new laptop - Acer Swift  3 review in India	Positive	Business Performance	53
1187		28079	Acer Inc	This new high-end processor is based on Renoir architecture and is capable  of offering improved  gaming multi-thread performance and overall performance	Positive	General	82
1188		28079	Acer Inc	Acer Swift  3 SF314-42 price and launch offers	Positive	New Projects	89
1189		28079	Acer Inc	The Acer Swift  3 SF314-42 is priced at Rs	Positive	Business Risk	15
1190		28079	Acer Inc	Acer Swift  3 SF314-42 Specifications	Positive	Business Risk	16
1191		28079	Acer Inc	The new Swift  3 from Acer comes with a 14 IPS LCD display with a Full HD 1920 x 1080 resolution	Positive	General	83
1192		28079	Acer Inc	In terms of storage the Acer Swift  3 laptop comes with 512 GB of NVMe SSD storage that offers up to 8Gb/s of transfer speeds	Positive	Business Performance	54
1193		28079	Acer Inc	The laptop has a 3-cell 48-WH Li-iON battery that as per the company is capable  of offering up to 12 hours of backup	Positive	Business Performance	55
1194		28079	Acer Inc	A 35 mm headphone/mic jack is present on the right  side	Positive	Business Performance	56
1195		28079	Acer Inc	For wireless connectivity it is equipped  with Bluetooth 50 and supports WiFi 6 80211 a/b/g/n+ac+ax connection	Positive	New Projects	90
1196		28079	Acer Inc	The laptop weighs just 12 kgs making it highly portable  and is just 159mm think making it a highly portable  laptop	Positive	New Projects	91
1197	Positive	28076	Acer Inc	Acer India the global PC brand  today announced the latest addition to its thin  and light notebook series with the arrival of new Acer Swift  3 which is now available up to AMD Ryzen 5 4500U Processor with Radeon Graphics	Positive	Business Risk	17
1198		28076	Acer Inc	Acer Swift  3 is Indias first AMD Ryzen 4000 series mobile processor-powered laptop in the market for mobile computing needs	Positive	Business Risk	18
1199		28076	Acer Inc	Acer continues to push the envelope when it comes to minimalist design aesthetic and the new thin  and light Acer Swift  3 is yet another compelling  option for people who value the artistic appeal  as much as the performance of their device	Positive	General	84
1200		28076	Acer Inc	It sports narrow-bezel display offering 8273 percent screen-to-body ratio with a 14-inch Full HD IPS display and packs a lot of power into its 1595 mm thin  chassis with weighs just 12 kg light	Negative	Business Performance	57
1201		28076	Acer Inc	The dual-band Intel Wi-Fi 6 offers a strong  fat and more enjoyable wireless experience making it an ultra-portable supercharged laptop for work and play	Positive	New Projects	92
1202		28076	Acer Inc	It delivers up to 11 hours of battery life and offers fast  charging capabilities; 30 minutes charging can provide  approximately 4 hours of battery life in video playback Speaking on this occasion Chandrahas Panigrahi CMO & Consumer Business Head Acer India said We are also extremely proud  to be the first ones in India to launch a laptop with AMD Ryzen 4000 series processor specially designed for mobile working	Positive	Business Performance	58
1203		28076	Acer Inc	As we continue to expand our thin  and light range of devices our goal has always been to offer consumers with a device that can easily function both for work as well as for play	Negative	Business Performance	59
1204		28076	Acer Inc	Packed with powerful  and brilliant features the New Swift  3 will be a perfect  fit for a modern  lifestyle	Positive	Market Expansion	30
1205		28076	Acer Inc	The fact that Swift  3 weighs only 12 kg making it super  portable  ideal for slipping in a bag and working on the go Vinay Sinha Managing Director Sales AMD India Pvt Ltd said Acer and AMD together have brought powerful  computing experiences to consumers	Positive	New Projects	93
1206		28076	Acer Inc	We are delighted  to take our collaboration to the next level with the launch of Swift  3 powered by Ryzen 4000 series mobile processor	Positive	New Projects	94
1207		28076	Acer Inc	He added Consumers today want superior  performance and battery life for work play and entertainment in a portable  and stylish device	Positive	General	85
1208		28076	Acer Inc	The new Swift  3 enables consumers to push their boundaries in an ultra-thin form factor led  by AMDs innovative  7nm technology and Zen2 core architecture	Positive	Market Expansion	31
1209		28076	Acer Inc	Delivering amazing  performance and productivity	Positive	New Projects	95
1210		28076	Acer Inc	Swift  3 packs a lot of power into the chassis	Positive	General	86
1211		28076	Acer Inc	Revved up Display and Brightness: Striding up the capabilities and design to match more demanding user requirements Acer Swift  3 comes with narrow-bezel display offering 8273 percent screen-to-body ratio with a 14-inch Full HD IPS display and packs a lot of power into its 1595 mm thin  chassis with a light-weight of just 12 kg	Negative	Business Performance	60
1212		28076	Acer Inc	Its ultra-thin Magnesium-Aluminium chassis delivers a good  compact  feel to the users	Positive	New Projects	96
1213		28076	Acer Inc	Adding to the user experience the new Swift  3 offers an exceptionally fast  and responsive experience with battery life that lasts up to 11 hours a day	Positive	General	87
1214		28076	Acer Inc	Thanks to the fast  charge facility that provides  approximately 4 hours use after 30 minutes charge	Positive	General	88
1215		28076	Acer Inc	This helps  customers to use their Swift  3 well during emergencies	Positive	General	89
1216		28076	Acer Inc	: Users get easy  updates to the latest information with a full range of connectivity options	Positive	Business Performance	61
1217		28076	Acer Inc	Dual band WIFI-6 80211 ax  improves  the average network throughout by upto 3 times and reduces latency upto 75% compared to WiFi 5	Negative	New Projects	97
1218		28076	Acer Inc	Using full function USB C super  speed USB 10Gbps users get superfast data transfer and display port functionality and it can be used for power delivery	Positive	New Projects	98
1219		28076	Acer Inc	6 AX200 + BT 50 for smooth  internet connectivity	Positive	New Projects	99
1220		28076	Acer Inc	Work smarter and secure: The laptop is equipped  with Windows 10 Microsoft Office 2019 DTS Audio featuring optimized bass response and micro-speaker distortion prevention  for optimum  sound experience	Positive	General	90
1221		28076	Acer Inc	It also allows interaction with Cortana while the device is in Modern  Standby mode	Positive	General	91
1222		28076	Acer Inc	Password free access gives users quicker  access to the notebook	Positive	General	92
1223		28076	Acer Inc	Pricing and Availability: Swift  3 is available in Silver color at a starting price from Rs 59999 on Acer E-store https://storeacercom/en-in/  and authorized retail outlets	Positive	Business Performance	62
1224	Negative	28082	Acer Inc	Acer Swift  3 houses a narrow-bezel display offering 8273 per cent screen-to-body ratio with a 14-inch Full HD IPS display and 1595 mm thin  chassis	Negative	Business Performance	63
1225		28082	Acer Inc	It features Dual band WIFI-6 which aims to improve  the average network throughout by up to 3 times and reduces latency  up to 75 per cent compared to WiFi-5	Negative	General	93
1226		28082	Acer Inc	The device is equipped  with Windows 10 Microsoft Office 2019 DTS Audio and micro-speaker distortion prevention  for optimum  sound experience	Positive	General	94
1227	Positive	28068	ABB Ltd	So far this year Stadler has awarded  ABB orders worth  more than US$180m to provide  traction  systems and battery energy storage for locomotives and trainsets to be supplied to operators in Europe and North America	Positive	New Projects	120
1228		28068	ABB Ltd	The order covers 11 Flirt  diesel multiple-units as well as 24 trimode units equipped  for 25 kV 50 Hz diesel or lithium-ion battery operation on routes with no or discontinuous electrification	Negative	New Projects	121
1229		28068	ABB Ltd	These will have ABB traction  equipment and energy storage to enable  off-wire operation including potentially street-running	Positive	Market Expansion	67
1230		28068	ABB Ltd	ABB is also to supply traction  equipment for more than 100 regional trains and locomotives Stadler is supplying to Germany Hungary Italy Slovenia Canada and the USA	Positive	New Projects	122
1231		28068	ABB Ltd	With our recently inaugurated production facility for energy storage systems in Baden Switzerland ABB has expanded  its technology and market leadership in the field of sustainable  mobility	Positive	Business Performance	50
1232		28068	ABB Ltd	We can supply the entire traction  chain from a single source explained Morten Wierod President of ABBs Motion Business	Positive	General	82
1233		28068	ABB Ltd	ABB has many years of experience in energy storage systems for a wide variety  of applications such as in power grids or solar systems	Positive	New Projects	123
1234		28068	ABB Ltd	We have now successfully integrated  energy efficient  and advanced traction  equipment with batteries in modern  trains in partnership  with Stadler	Positive	Market Expansion	68
1235	Negative	28058	Ashoka Buildcon Ltd	The Project is executed by Ashoka Kharar Ludhiana Road Ltd SPV a Wholly Owned Subsidiary of Ashoka Concessions  Ltd a Subsidiary of the Co Consequent to the declaration of CoD the SPV is eligible for receipt of Annuity payments from NHAI within 6 months from the date of achievement  of CoD ie6 months from March 31 2020	Negative	Business Performance	2
1236	Positive	28063	ABB Ltd	What did your customers tell you? ABB works with a wide range of customers across both process and energy industries and one thing they have in common is the drive for improving  operational performance said Matilda	Positive	Business Performance	51
1237		28063	ABB Ltd	Further she said that when executing manual procedures human errors  emerge as the main challenge	Negative	Business Risk	29
1238		28063	ABB Ltd	Even in highly automated  operations there are some areas that rely  on manual execution and when people are involved errors  are likely to happen	Positive	Business Risk	30
1239		28063	ABB Ltd	Although standard operating procedures SOPs are used to mitigate  errors  avoid unnecessary  downtimes and safety incidents these are not always followed	Negative	Business Risk	31
1240		28063	ABB Ltd	So the main challenge remains in finding ways to reduce  human errors 	Negative	General	83
1241		28063	ABB Ltd	Customers are looking for a more integrated  and flexible approach to SOPs to reduce  the possibility of making mistakes by working on the right  asset in the right  sequence and doing the right  things she said	Positive	General	84
1242		28063	ABB Ltd	Another challenge that ABBs customers mention is a lack  of real-time information when they are out in the field	Negative	Business Risk	32
1243		28063	ABB Ltd	What they expect is reliable  real-time information field work synchronized with the control  system and simplified  collaboration between the field operator and control  room operator	Positive	New Projects	124
1244		28063	ABB Ltd	Changes in the Last Ten Years Mark said that these are not new issues and several companies have provided  solutions to address these	Positive	Business Risk	33
1245		28063	ABB Ltd	And two things that have significantly  helped this course are: mobility industrial grade tablets smartphones and emergence of wearables like  HoloLens; and the combination of industrial Wi-fi and IT	Positive	General	85
1246		28063	ABB Ltd	Mobility has emerged as a megatrend in the industrial space as it provides  connectivity for operators she added	Positive	Market Expansion	69
1247		28063	ABB Ltd	How ABBs Ability Augmented Field Procedures Solution Solves These Problems 	Negative	Business Risk	34
1248		28063	ABB Ltd	The Augmented Field Procedure mobile app tablet smart  phone is a step change in the way work is done from the traditional paper-driven way explained Matilda	Positive	New Projects	125
1249		28063	ABB Ltd	So theres no hassle  about latest versions or having it copied and distributed	Positive	Business Performance	52
1250		28063	ABB Ltd	In addition to that on the mobile app the operator also has easy  access to supporting  information pictures and manuals and can leverage  the built-in camera to take pictures of the procedural steps or QR code to ensure  that the work is being done properly	Positive	Business Risk	35
1251		28063	ABB Ltd	Further she said that the core capability  of the solution is integration to the control  system	Positive	New Projects	126
1252		28063	ABB Ltd	The operator gets real-time field information to capture values automatically and is able  to interact with the control  system to execute procedures in a synchronized manner	Positive	General	86
1253		28063	ABB Ltd	This improves  work efficiency and reduces the need to have back and forth radio communication between the control  room and field	Positive	General	87
1254		28063	ABB Ltd	While the solution supports the users it also ensures that the work is done in the right  way	Positive	General	88
1255		28063	ABB Ltd	It has features like  voice synthesis and an industrial chatbot to support the operators too	Positive	General	89
1256		28063	ABB Ltd	This enables hands-free operations and see field data in the augmented context of the physical area of their view		General	90
1257		28063	ABB Ltd	This is an eye-opener and very powerful  when it comes to work and	Positive	General	91
1258		28063	ABB Ltd	And what about large  companies vs small single site users? asked Mark	Positive	Business Performance	53
1259		28063	ABB Ltd	So the workflow is simplified  and can be done without an ABB expert on site	Positive	New Projects	127
1260		28063	ABB Ltd	She explained that this enables enterprise-level and global rollouts and supports sharing procedures across sites and delivering comprehensive  global solutions	Positive	General	92
1261		28063	ABB Ltd	The main objective is to improve  operational procedures; to do things in the right  sequence with the control  systems	Positive	Market Expansion	70
1262		28063	ABB Ltd	This will help  to avoid errors  and ensure  that procedures are correctly  followed; and also reduce  the need for communication with the control  room	Positive	Business Risk	36
1263	Positive	28056	ABB Ltd	What did your customers tell you? ABB works with a wide range of customers across both process and energy industries and one thing they have in common is the drive for improving  operational performance said Matilda	Positive	Business Performance	54
1264		28056	ABB Ltd	Further she said that when executing manual procedures human errors  emerge as the main challenge	Negative	Business Risk	37
1265		28056	ABB Ltd	Even in highly automated  operations there are some areas that rely  on manual execution and when people are involved errors  are likely to happen	Positive	Business Risk	38
1266		28056	ABB Ltd	Although standard operating procedures SOPs are used to mitigate  errors  avoid unnecessary  downtimes and safety incidents these are not always followed	Negative	Business Risk	39
1267		28056	ABB Ltd	So the main challenge remains in finding ways to reduce  human errors 	Negative	General	93
1268		28056	ABB Ltd	Customers are looking for a more integrated  and flexible approach to SOPs to reduce  the possibility of making mistakes by working on the right  asset in the right  sequence and doing the right  things she said	Positive	General	94
1269		28056	ABB Ltd	Another challenge that ABBs customers mention is a lack  of real-time information when they are out in the field	Negative	Business Risk	40
1270		28056	ABB Ltd	What they expect is reliable  real-time information field work synchronized with the control  system and simplified  collaboration between the field operator and control  room operator	Positive	New Projects	128
1271		28056	ABB Ltd	Changes in the Last Ten Years Mark said that these are not new issues and several companies have provided  solutions to address these	Positive	Business Risk	41
1272		28056	ABB Ltd	And two things that have significantly  helped this course are: mobility industrial grade tablets smartphones and emergence of wearables like  HoloLens; and the combination of industrial Wi-fi and IT	Positive	General	95
1273		28056	ABB Ltd	Mobility has emerged as a megatrend in the industrial space as it provides  connectivity for operators she added	Positive	Market Expansion	71
1274		28056	ABB Ltd	How ABBs Ability Augmented Field Procedures Solution Solves These Problems 	Negative	Business Risk	42
1275		28056	ABB Ltd	The Augmented Field Procedure mobile app tablet smart  phone is a step change in the way work is done from the traditional paper-driven way explained Matilda	Positive	New Projects	129
1276		28056	ABB Ltd	So theres no hassle  about latest versions or having it copied and distributed	Positive	Business Performance	55
1277		28056	ABB Ltd	In addition to that on the mobile app the operator also has easy  access to supporting  information pictures and manuals and can leverage  the built-in camera to take pictures of the procedural steps or QR code to ensure  that the work is being done properly	Positive	Business Risk	43
1278		28056	ABB Ltd	Further she said that the core capability  of the solution is integration to the control  system	Positive	New Projects	130
1279		28056	ABB Ltd	The operator gets real-time field information to capture values automatically and is able  to interact with the control  system to execute procedures in a synchronized manner	Positive	General	96
1280		28056	ABB Ltd	This improves  work efficiency and reduces the need to have back and forth radio communication between the control  room and field	Positive	General	97
1281		28056	ABB Ltd	While the solution supports the users it also ensures that the work is done in the right  way	Positive	General	98
1282		28056	ABB Ltd	It has features like  voice synthesis and an industrial chatbot to support the operators too	Positive	General	99
1283		28056	ABB Ltd	This enables hands-free operations and see field data in the augmented context of the physical area of their view		General	100
1284		28056	ABB Ltd	This is an eye-opener and very powerful  when it comes to work and	Positive	General	101
1285		28056	ABB Ltd	And what about large  companies vs small single site users? asked Mark	Positive	Business Performance	56
1286		28056	ABB Ltd	So the workflow is simplified  and can be done without an ABB expert on site	Positive	New Projects	131
1287		28056	ABB Ltd	She explained that this enables enterprise-level and global rollouts and supports sharing procedures across sites and delivering comprehensive  global solutions	Positive	General	102
1288		28056	ABB Ltd	The main objective is to improve  operational procedures; to do things in the right  sequence with the control  systems	Positive	Market Expansion	72
1289		28056	ABB Ltd	This will help  to avoid errors  and ensure  that procedures are correctly  followed; and also reduce  the need for communication with the control  room	Positive	Business Risk	44
1290	Positive	28059	Barco	Back in February at ISE 2020 we first talked about our new cloud-based subscription platform Barco Insights		Business Performance	1
1291		28059	Barco	Efficiency  reliability and flexibility  at the core of remote projector management that was our promise 	Positive	Business Performance	2
1292		28059	Barco	Cloud-based storage of projectors usage data and light source runtimes		Business Performance	3
1293		28059	Barco	And when youre managing an entire fleet of rental devices the automated  cloud-based storage of such information will cut down manual administration between different projects	Positive	General	3
1294		28059	Barco	These factors have a strong  effect on the overall performance of the projector and on the devices aging progress 	Positive	Business Performance	4
1295		28059	Barco	It also includes a two-week history graph displaying all changes in temperature and humidity while the projector was switched on and connected to the cloud 	Negative	Business Performance	5
1296		28059	Barco	Set the flex brightness value in the cloud 	Negative	Business Performance	6
1297		28059	Barco	Barcos UDM and UDX offer the unique  Flex² solution	Positive	New Projects	7
1298		28059	Barco	The integrated  feature allows you to tune and lock the projectors brightness and resolution for a specific project	Positive	General	4
1299		28059	Barco	Rental companies can cover a wider range of shows with fewer projectors in their fleet and other ProAV installations benefit  from the increased versatility  this feature brings to their investment	Positive	Market Expansion	1
1300		28059	Barco	The Barco Insights platform now gives you the ability to configure the Flex² brightness value in the cloud  at any time and wherever you are	Negative	General	5
1301		28059	Barco	The free  Barco Insights Monitor license even has some more additional features to offer	Positive	General	6
1302		28059	Barco	You can take custom notes on a specific projector eg mentions of damages or additional runtime information and save it in the cloud  to facilitate  the QA process	Negative	General	7
1303		28059	Barco	So no more error-prone e-mails with serial numbers or post-its on flight cases		General	8
1304		28059	Barco	And the online platform gives a central view of what firmware your projector fleet is on enabling quick insights into which device is up-to-date and which ones still need to be upgraded 	Positive	Business Performance	7
1305	Neutral	28052	ABB Ltd	The delivery that has been agreed between ABB and Metsä Fibre includes a significant  amount of electrification and drives technology that is developed and manufactured in Finland at ABBs facilities in Vaasa and Helsinki	Positive	New Projects	132
1306		28052	ABB Ltd	Metsä Fibre has had long and successful cooperation  with the aforementioned partners on projects that are strategically important  to the company such as the Äänekoski bioproduct mill project in Finland	Positive	New Projects	133
1307		28052	ABB Ltd	Preparatory work is ongoing at the mill area in Kemi to ensure  the smooth  start of bioproduct mill construction immediately after the investment decision has been made	Positive	Business Risk	45
1308	Positive	28054	Acer Inc	Acer is known for its value-for-money laptops and indeed upgrading its much popular  Aspire  lineup with powerful  gaming capable  hardware is a smart  move by Acer	Positive	Business Risk	19
1309		28054	Acer Inc	So its new Aspire  7 gaming laptop series is equipped  last-gen CPUs ie 9th Gen Intel Core CPUs & AMD Ryzen 3000 mobile CPUs	Positive	Business Risk	20
1310		28054	Acer Inc	The Acer Aspire  7 features a 156 inch	Positive	Business Risk	21
1311		28054	Acer Inc	Full HD LED  Backlit ComfyView TFT LCD D=display with 16:9 aspect ratio	Positive	New Projects	100
1312		28054	Acer Inc	The laptop has considerably narrower  bezels to what weve seen previously on a gaming laptop with a modest  8161% screen-to-body ratio	Negative	Business Performance	64
1313		28054	Acer Inc	The laptop is indeed sleek  considering the fact you can game on it weighs just 215 kg	Positive	Business Performance	65
1314		28054	Acer Inc	The 3 cell 48 WHr Li-ion battery promises  a battery life up to 85 hours and comes included with a 135 W AC Adapter	Positive	New Projects	101
1315		28054	Acer Inc	The base variant of this Acer Aspire  7 laptop with 9th Gen Core i5-9300H & 8 GB DDR4 RAM along with 512 GB SSD & NVIDIA Geforce GTX 1650 is available for just ?	Positive	Business Performance	66
1316	Neutral	28050	ABB Ltd	The delivery that has been agreed between ABB and Metsä Fibre includes a significant  amount of electrification and drives technology that is developed and manufactured in Finland at ABBs facilities in Vaasa and Helsinki	Positive	New Projects	134
1317		28050	ABB Ltd	Metsä Fibre has had long and successful cooperation  with the aforementioned partners on projects that are strategically important  to the company such as the Äänekoski bioproduct mill project in Finland	Positive	New Projects	135
1318		28050	ABB Ltd	Preparatory work is ongoing at the mill area in Kemi to ensure  the smooth  start of bioproduct mill construction immediately after the investment decision has been made	Positive	Business Risk	46
1319	Positive	28048	ABB Ltd	Suleman Alli director of strategy at UK Power Networks said: As the first network operator in the UK to trial the Smart  Wires power flow control  technology we are delighted  to see it recognised by this World Economic Forum report	Positive	New Projects	136
1320		28048	ABB Ltd	Trialling smart  solutions like  load balancing highlights our commitment  to unlocking new capacity for renewable energy safely  cost effectively  and quickly	Positive	General	103
1321		28048	ABB Ltd	Smart  Wires was recognized for its ability to maximize the grids transfer capacity which is necessary to enable  rapid  low-cost and large-scale connections of new renewables	Positive	Market Expansion	73
1322		28048	ABB Ltd	Rotenberg reflected It is remarkable  how much spare capacity exists on todays grids	Positive	General	104
1323		28048	ABB Ltd	We regularly find projects where we can release several gigawatts of capacity in under a year without disturbing  communities or the environment	Positive	New Projects	137
1324		28048	ABB Ltd	This technology is causing leading utilities across Europe Australia and the Americas to change the way they think about future investments in critical  infrastructure Rotenberg said	Negative	Business Risk	47
1325		28048	ABB Ltd	Selected submissions were grouped into six categories: Critical  Infrastructure; Emission Reductions; Energy Efficiency; Systemic Efficiency; Renewables Integration; and Access to Electricity	Negative	General	105
1326		28048	ABB Ltd	Smart  Wires ABB and Siemens were highlighted in the Critical  Infrastructure category	Negative	New Projects	138
1327		28048	ABB Ltd	Transmission and distribution grids are the backbone  of the entire electricity network	Positive	Business Performance	57
1328		28048	ABB Ltd	Radical  changes [from the supply and demand perspective] require our critical  electricity infrastructure to be more flexible  and agile than ever before without compromising on power security reliability efficiency  or affordability	Negative	Business Performance	58
1329		28048	ABB Ltd	Innovative  grid technologies are playing a key role in addressing energy transition-related opportunities and challenges the report says	Positive	General	106
1330		28048	ABB Ltd	ABB was recognized for advances in High Voltage Direct Current HVDC technology supporting  the integration of large-scale renewables off-shore wind farms and cross-border interconnections	Positive	New Projects	139
1331		28048	ABB Ltd	Siemens was recognized for its Modular  Multilevel Converter MMC technology representing a technological breakthrough  when connecting large  offshore wind parks to the grid	Positive	New Projects	140
1332		28048	ABB Ltd	These innovations have proven  themselves over the past decade and will continue to be pivotal to enable  a successful  low-cost and low-impact energy transition	Positive	Market Expansion	74
1333		28048	ABB Ltd	About Smart  Wires:	Positive	General	107
1334		28048	ABB Ltd	Smart  Wires develops and implements innovative  technologies that advance the delivery of electricity	Positive	New Projects	141
1335		28048	ABB Ltd	This means more renewables improved flexibility  and stability  and less constraints costs community and environmental impact 	Positive	Business Performance	59
1336		28048	ABB Ltd	With our next generation SmartValve technology alongside our advanced  analytics and consulting services we are built to assist utilities solve problems and evolve the grid	Positive	Market Expansion	75
1337		28048	ABB Ltd	About UK Power Networks: UK Power Networks is the countrys biggest  electricity distributor making sure the lights stay on for more than eight million homes and businesses across London the South East and the East of England	Positive	Business Performance	60
1338		28048	ABB Ltd	UK Power Networks continues to be listed in the Sunday Times Top  25 Best  Big Companies to Work For and made industry history by becoming first company to win  Utility of the Year two years running 2015 and 2016 also 2012	Positive	Business Performance	61
1339		28048	ABB Ltd	The company invests more than 600 million in its electricity networks every year offers extra help  to vulnerable  customers at times of need and is undertaking trials to ensure  that electricity networks support the transition to a low carbon future	Positive	New Projects	142
1340		28048	ABB Ltd	@UKPowerNetworks [email protected] SOURCE Smart  Wires Related Links https://wwwsmartwirescom	Positive	General	108
1341	Positive	28049	ABB Ltd	Suleman Alli director of strategy at UK Power Networks said: As the first network operator in the UK to trial the Smart  Wires power flow control  technology we are delighted  to see it recognised by this World Economic Forum report	Positive	New Projects	143
1342		28049	ABB Ltd	Trialling smart  solutions like  load balancing highlights our commitment  to unlocking new capacity for renewable energy safely  cost effectively  and quickly	Positive	General	109
1343		28049	ABB Ltd	Smart  Wires was recognized for its ability to maximize the grids transfer capacity which is necessary to enable  rapid  low-cost and large-scale connections of new renewables	Positive	Market Expansion	76
1344		28049	ABB Ltd	Rotenberg reflected It is remarkable  how much spare capacity exists on todays grids	Positive	General	110
1345		28049	ABB Ltd	We regularly find projects where we can release several gigawatts of capacity in under a year without disturbing  communities or the environment	Positive	New Projects	144
1346		28049	ABB Ltd	This technology is causing leading utilities across Europe Australia and the Americas to change the way they think about future investments in critical  infrastructure Rotenberg said	Negative	Business Risk	48
1347		28049	ABB Ltd	Selected submissions were grouped into six categories: Critical  Infrastructure; Emission Reductions; Energy Efficiency; Systemic Efficiency; Renewables Integration; and Access to Electricity	Negative	General	111
1348		28049	ABB Ltd	Smart  Wires ABB and Siemens were highlighted in the Critical  Infrastructure category	Negative	New Projects	145
1349		28049	ABB Ltd	Transmission and distribution grids are the backbone  of the entire electricity network	Positive	Business Performance	62
1350		28049	ABB Ltd	Radical  changes [from the supply and demand perspective] require our critical  electricity infrastructure to be more flexible  and agile than ever before without compromising on power security reliability efficiency  or affordability	Negative	Business Performance	63
1351		28049	ABB Ltd	Innovative  grid technologies are playing a key role in addressing energy transition-related opportunities and challenges the report says	Positive	General	112
1352		28049	ABB Ltd	ABB was recognized for advances in High Voltage Direct Current HVDC technology supporting  the integration of large-scale renewables off-shore wind farms and cross-border interconnections	Positive	New Projects	146
1353		28049	ABB Ltd	Siemens was recognized for its Modular  Multilevel Converter MMC technology representing a technological breakthrough  when connecting large  offshore wind parks to the grid	Positive	New Projects	147
1354		28049	ABB Ltd	These innovations have proven  themselves over the past decade and will continue to be pivotal to enable  a successful  low-cost and low-impact energy transition	Positive	Market Expansion	77
1355		28049	ABB Ltd	About Smart  Wires:	Positive	General	113
1356		28049	ABB Ltd	Smart  Wires develops and implements innovative  technologies that advance the delivery of electricity	Positive	New Projects	148
1357		28049	ABB Ltd	This means more renewables improved flexibility  and stability  and less constraints costs community and environmental impact 	Positive	Business Performance	64
1358		28049	ABB Ltd	With our next generation SmartValve technology alongside our advanced  analytics and consulting services we are built to assist utilities solve problems and evolve the grid	Positive	Market Expansion	78
1359		28049	ABB Ltd	About UK Power Networks: UK Power Networks is the countrys biggest  electricity distributor making sure the lights stay on for more than eight million homes and businesses across London the South East and the East of England	Positive	Business Performance	65
1360		28049	ABB Ltd	UK Power Networks continues to be listed in the Sunday Times Top  25 Best  Big Companies to Work For and made industry history by becoming first company to win  Utility of the Year two years running 2015 and 2016 also 2012	Positive	Business Performance	66
1361		28049	ABB Ltd	The company invests more than 600 million in its electricity networks every year offers extra help  to vulnerable  customers at times of need and is undertaking trials to ensure  that electricity networks support the transition to a low carbon future	Positive	New Projects	149
1362		28049	ABB Ltd	@UKPowerNetworks [email protected] SOURCE Smart  Wires Related Links https://wwwsmartwirescom	Positive	General	114
1363	Positive	28045	ABB Ltd	ABBs new AXR Large  AC motors offer power-dense design for hazardous  locations	Negative	New Projects	150
1364		28045	ABB Ltd	This helps  save space up to 8 inches in overall length in some cases which enables more compact  installations on oil platforms and in refineries	Positive	New Projects	151
1365		28045	ABB Ltd	The new AXR motors also offer improved  cooling a critical  factor to extend the life of the motor	Negative	General	115
1366		28045	ABB Ltd	The new cooling configuration offers a more thermally equalized motor eliminating hot  spots that have been seen in TEFC motors says Charles Blankenship Large  AC Motor Product Manager ABB	Positive	Market Expansion	79
1367		28045	ABB Ltd	cooling reduces the thermal stresses  on the insulation system which helps  improve  the motors longevity	Positive	General	116
1368		28045	ABB Ltd	As the main terminal box and auxiliary box can be mounted in several positions installation and maintenance are easy 	Positive	General	117
1369		28045	ABB Ltd	The rigid frame increases stability  so that the motor can meet the stringent  API vibration  limit specifications	Negative	General	118
1370		28045	ABB Ltd	AXR motors also feature sleeve bearings that operate at cooler temperatures last longer and are easy  to maintain	Positive	Business Performance	67
1371		28045	ABB Ltd	These motors are available with up to an IP56 rating for protection  against contaminates and dust ingress	Positive	Market Expansion	80
1372		28045	ABB Ltd	SIX Swiss Ex is a pioneering technology leader with a comprehensive  offering for digital industries	Positive	General	119
1373		28045	ABB Ltd	With a history of innovation  spanning more than 130 years ABB is today a leader in digital industries with four customer-focused globally leading businesses: Electrification Industrial Automation Motion and Robotics & Discrete Automation supported  by its common ABB Ability digital platform	Positive	Market Expansion	81
1374		28045	ABB Ltd	This helps  save space up to 8 inches in overall length in some cases which enables more compact  installations on oil platforms and in refineries	Positive	New Projects	152
1375		28045	ABB Ltd	The new AXR motors also offer improved  cooling a critical  factor to extend the life of the motor	Negative	General	120
1376		28045	ABB Ltd	The new cooling configuration offers a more thermally equalized motor eliminating hot  spots that have been seen in TEFC motors says Charles Blankenship Large  AC Motor Product Manager ABB	Positive	Market Expansion	82
1377		28045	ABB Ltd	cooling reduces the thermal stresses  on the insulation system which helps  improve  the motors longevity	Positive	General	121
1378		28045	ABB Ltd	As the main terminal box and auxiliary box can be mounted in several positions installation and maintenance are easy 	Positive	General	122
1379		28045	ABB Ltd	The rigid frame increases stability  so that the motor can meet the stringent  API vibration  limit specifications	Negative	General	123
1380		28045	ABB Ltd	AXR motors also feature sleeve bearings that operate at cooler temperatures last longer and are easy  to maintain	Positive	Business Performance	68
1381		28045	ABB Ltd	These motors are available with up to an IP56 rating for protection  against contaminates and dust ingress	Positive	Market Expansion	83
1382		28045	ABB Ltd	SIX Swiss Ex is a pioneering technology leader with a comprehensive  offering for digital industries	Positive	General	124
1383		28045	ABB Ltd	With a history of innovation  spanning more than 130 years ABB is today a leader in digital industries with four customer-focused globally leading businesses: Electrification Industrial Automation Motion and Robotics & Discrete Automation supported  by its common ABB Ability digital platform	Positive	Market Expansion	84
1384	Positive	28046	Acer Inc	Acer has announced the expansion  of its gaming portfolio in India with the launch of Aspire  7 gaming laptop	Positive	Business Performance	67
1385		28046	Acer Inc	The new Acer Aspire  7 is aimed at casual gamers who want a take-anywhere laptop	Positive	Business Risk	22
1386		28046	Acer Inc	new Aspire  7 gaming laptop features a 156-inch FHD display and weighs about 215 kg	Positive	Business Risk	23
1387		28046	Acer Inc	Adding to the display features are Acers own suite of Color Intelligence  and ExaColor software with the two narrow bezels and an 8161% screen-to-body ratio	Positive	Business Risk	24
1388		28046	Acer Inc	It comes with an LED-backlit keyboard		New Projects	102
1389		28046	Acer Inc	In terms of connectivity the Aspire  7 has HDMI and USB 32 ports as well as	Positive	New Projects	103
1390		28046	Acer Inc	With Wi-Fi 6 users will get easy  updates to the latest information with a full range of connectivity options says the company	Positive	Business Risk	25
1391	Positive	28047	Acer Inc	Housing economic outbreak  following the release of the five major foundry positive  outlook domestic and foreign legal persons optimistic  about pen and electricity shipments to the second half of the year further repair of the concept of stock financial measures including the latest umea securities to buy  Acer 2353 Guangda two major index stocks large-scale investors named Hon Hai And Asus asus etc  is expected to become May revenue and even the second quarter of the earnings bright  spot	Positive	Business Performance	68
1392		28047	Acer Inc	Economic Daily which provides  Facebooks Lower Asia-Pacific hardware report has seen a surge in home-based and home-based learning opportunities with surveys pointing to acer Asus Chromebook shipments to Season 2 and Acers visibility in the third quarter	Positive	Business Performance	69
1393		28047	Acer Inc	Meanwhile Lenovos PEN market size TAM is expected to grow strongly in two to three years revealing that the PC boom  is expected to last longer than expected	Positive	Business Performance	70
1394		28047	Acer Inc	Recommended BofAs US team is optimistic  that PC glory  revising global PC/NB shipments to a quarter-on-quarter increase  of 6 percent and 7 percent and a full-year decline  of 11 percent and 95 percent while a 02 percent decline  and growth  of 04 percent in 2021	Positive	Business Performance	71
1395		28047	Acer Inc	BofA further said that Guangda due to server steam regardless of the second quarter and the first half of shipments have double-digit growth  can be expected but Renbao by the component strained  the first half will be flat and The Shuo this quarter shipment estimate quarter increased  by 50% to 60% mainly low base period	Positive	Business Performance	72
1396		28047	Acer Inc	As for the shell factory can be Foxconn this season NB will also be good 	Positive	General	95
1397	Neutral	28044	ABB Ltd	BOOKRUNNER SAYS PRICE GUIDANCE:		Business Performance	69
1398	Positive	28036	ABB High Voltage Switchgear (Xiamen) Co., Ltd	ABB digital solutions to improve  energy efficiency  for Chinas industrial giant Trade press release | Beijing China | 2020-04-22	Positive	Market Expansion	1
1399		28036	ABB High Voltage Switchgear (Xiamen) Co., Ltd	The predictive maintenance software gained  first order from industrial customer in China First industrial application of ABB Asset Performance Management solution in China Allows facility operators to move from a reactive to proactive  approach to maintenance reducing costs and increasing uptime Data mining and analysis will help  Sinopec attain its energy efficiency  goals	Positive	Business Risk	1
1400		28036	ABB High Voltage Switchgear (Xiamen) Co., Ltd	ABB Power Grids will partner with Sinopec Corp Chinas largest  oil and petrochemical producer and provider to improve  energy efficiency  with ABBs Asset Performance Management APM solution	Positive	Market Expansion	2
1401		28036	ABB High Voltage Switchgear (Xiamen) Co., Ltd	The digital software will leverage  the industrials big data to drive more intelligent  approaches to asset management and further support the enterprise to make data-driven decisions on optimizing energy consumption	Positive	Market Expansion	3
1402		28036	ABB High Voltage Switchgear (Xiamen) Co., Ltd	This predictive maintenance software solution will enable  Qingdao Refining and Chemical Co Ltd a holding company of Sinopec to closely monitor the health of its critical  power assets	Negative	General	1
1403		28036	ABB High Voltage Switchgear (Xiamen) Co., Ltd	The solution will capture real-time asset operation data allowing plant operators a birds eye view of their facility assets and the tools to move from a reactive to a proactive  approach to asset maintenance planning which can result in decreased equipment failure  and reduced maintenance and energy consumption cost	Negative	Business Performance	1
1404		28036	ABB High Voltage Switchgear (Xiamen) Co., Ltd	Sinopec announced a plan in 2014 to double its energy efficiency  from the current level by 2025	Positive	Business Performance	2
1405		28036	ABB High Voltage Switchgear (Xiamen) Co., Ltd	As one of the companys key science and technology projects its estimated that ABBs APM solution will optimize  energy efficiency  performance by 15% after delivery	Positive	General	2
1406		28036	ABB High Voltage Switchgear (Xiamen) Co., Ltd	We are very pleased  to see the role it will play in supporting  Sinopecs energy efficiency  plan said Zhang Jinquan Senior Vice President of ABB Group and Head of Greater China Region ABB Power Grids business	Positive	General	3
1407		28036	ABB High Voltage Switchgear (Xiamen) Co., Ltd	The solution is also well  positioned to support the development of the Industrial Internet under Chinas new infrastructure investment plan and promote the deep integration of digital technology and traditional industry companies	Positive	Market Expansion	4
1408		28036	ABB High Voltage Switchgear (Xiamen) Co., Ltd	ABBs APM solution has gained  rich  application experiences in global power and industrial fields and has helped customers from multiple industries save millions of dollars every year	Positive	General	4
1409		28036	ABB High Voltage Switchgear (Xiamen) Co., Ltd	In China the digital technology has helped Chinas State Grid Southern Grid and Inner-Mongolia Grid in optimizing asset utilization and increasing operation efficiency  and asset service life	Positive	General	5
1410		28036	ABB High Voltage Switchgear (Xiamen) Co., Ltd	We create value for customers across the energy industrial transportation and infrastructure sectors delivering an extensive  range of digitally-advanced solutions	Positive	New Projects	1
1411		28036	ABB High Voltage Switchgear (Xiamen) Co., Ltd	Active  in 90+ countries our experts contribute  deep insight that enhances  reliability efficiency  and safety	Positive	Business Performance	3
1412		28036	ABB High Voltage Switchgear (Xiamen) Co., Ltd	Together we are committed  to shaping the future of sustainable  energy for generations to come as the partner of choice for a stronger  smarter and greener grid	Positive	New Projects	2
1413		28036	ABB High Voltage Switchgear (Xiamen) Co., Ltd	With a history of innovation  spanning more than 130 years ABB has four customer-focused globally leading businesses: Electrification Industrial Automation Motion and Robotics & Discrete Automation supported  by the ABB Ability digital platform	Positive	Market Expansion	5
1414		28036	ABB High Voltage Switchgear (Xiamen) Co., Ltd	First industrial application of ABB Asset Performance Management solution in China Allows facility operators to move from a reactive to proactive  approach to maintenance reducing costs and increasing uptime Data mining and analysis will help  Sinopec attain its energy efficiency  goals	Positive	Market Expansion	6
1415		28036	ABB High Voltage Switchgear (Xiamen) Co., Ltd	ABB Power Grids will partner with Sinopec Corp Chinas largest  oil and petrochemical producer and provider to improve  energy efficiency  with ABBs Asset Performance Management APM solution	Positive	Market Expansion	7
1416		28036	ABB High Voltage Switchgear (Xiamen) Co., Ltd	The digital software will leverage  the industrials big data to drive more intelligent  approaches to asset management and further support the enterprise to make data-driven decisions on optimizing energy consumption	Positive	Market Expansion	8
1417		28036	ABB High Voltage Switchgear (Xiamen) Co., Ltd	This predictive maintenance software solution will enable  Qingdao Refining and Chemical Co Ltd a holding company of Sinopec to closely monitor the health of its critical  power assets	Negative	General	6
1418		28036	ABB High Voltage Switchgear (Xiamen) Co., Ltd	The solution will capture real-time asset operation data allowing plant operators a birds eye view of their facility assets and the tools to move from a reactive to a proactive  approach to asset maintenance planning which can result in decreased equipment failure  and reduced maintenance and energy consumption cost	Negative	Business Performance	4
1419		28036	ABB High Voltage Switchgear (Xiamen) Co., Ltd	Sinopec announced a plan in 2014 to double its energy efficiency  from the current level by 2025	Positive	Business Performance	5
1420		28036	ABB High Voltage Switchgear (Xiamen) Co., Ltd	As one of the companys key science and technology projects its estimated that ABBs APM solution will optimize  energy efficiency  performance by 15% after delivery	Positive	General	7
1421		28036	ABB High Voltage Switchgear (Xiamen) Co., Ltd	We are very pleased  to see the role it will play in supporting  Sinopecs energy efficiency  plan said Zhang Jinquan Senior Vice President of ABB Group and Head of Greater China Region ABB Power Grids business	Positive	General	8
1422		28036	ABB High Voltage Switchgear (Xiamen) Co., Ltd	The solution is also well  positioned to support the development of the Industrial Internet under Chinas new infrastructure investment plan and promote the deep integration of digital technology and traditional industry companies	Positive	Market Expansion	9
1423		28036	ABB High Voltage Switchgear (Xiamen) Co., Ltd	ABBs APM solution has gained  rich  application experiences in global power and industrial fields and has helped customers from multiple industries save millions of dollars every year	Positive	General	9
1424		28036	ABB High Voltage Switchgear (Xiamen) Co., Ltd	In China the digital technology has helped Chinas State Grid Southern Grid and Inner-Mongolia Grid in optimizing asset utilization and increasing operation efficiency  and asset service life	Positive	General	10
1425		28036	ABB High Voltage Switchgear (Xiamen) Co., Ltd	We create value for customers across the energy industrial transportation and infrastructure sectors delivering an extensive  range of digitally-advanced solutions	Positive	New Projects	3
1426		28036	ABB High Voltage Switchgear (Xiamen) Co., Ltd	Active  in 90+ countries our experts contribute  deep insight that enhances  reliability efficiency  and safety	Positive	Business Performance	6
1427		28036	ABB High Voltage Switchgear (Xiamen) Co., Ltd	Together we are committed  to shaping the future of sustainable  energy for generations to come as the partner of choice for a stronger  smarter and greener grid	Positive	New Projects	4
1428		28036	ABB High Voltage Switchgear (Xiamen) Co., Ltd	With a history of innovation  spanning more than 130 years ABB has four customer-focused globally leading businesses: Electrification Industrial Automation Motion and Robotics & Discrete Automation supported  by the ABB Ability digital platform	Positive	Market Expansion	10
1429	Negative	28037	ABB Ltd	The UKs Serious Fraud  Office SFO has dropped its investigation into ABB linked to the Unaoil case	Negative	Business Risk	49
1430		28037	ABB Ltd	After a thorough  and detailed review of the available evidence the SFO concluded that this case did not meet the relevant test for prosecution as defined in the Code for Crown Prosecutors	Positive	Business Risk	50
1431	Positive	28039	ABB Ltd	Reducing carbon emissions during open-pit operations is now a major driver for global mining companies who are going back to the future by employing trolley assist systems for trucks to limit diesel fuel usage and costs while at the same time boosting speed-on-grade for greater throughput write ABBs Mehrzad Ashnagaran and Michel Serres* Haul road electrification technology has been in development for decades but the emergence of a new generation of diesel-electric trucks that already have an electrical system on board to tap into  making it easy to attach them on a trolley line  means the concept has recently begun to gain  significant traction as a commercially viable way to facilitate  the all-electric mines of the future	Positive	Business Performance	70
1432		28039	ABB Ltd	There is no technology today that enables miners to fill the trucks tank and complete a shift without stopping; either you have to increase  the speed of the mobile equipment or the size	Positive	New Projects	153
1433		28039	ABB Ltd	the fleet itself  both of which have a direct impact  on capital expenditure	Negative	Capex Plans	1
1434		28039	ABB Ltd	Trolley assist systems have returned to the market in the last two to three years in places such as North and South America Africa and Turkey mainly due to CO2 emission taxes the removal of tax advantages  from diesel and premiums offered by energy suppliers to incentivise companies to use electricity	Positive	Market Expansion	85
1435		28039	ABB Ltd	Going forward there are many synergies with using trolley lines which offer huge benefits  in terms of CO2 reduction	Positive	Market Expansion	86
1436		28039	ABB Ltd	Large  trucks regularly carry 3000-5000 litres of diesel in the tank and consume around 300-400 litres per hour while travelling up a 17 km ramp in half an hour	Positive	New Projects	154
1437		28039	ABB Ltd	By going electric the vehicles when on-trolley only use around 30-50 litres an hour which equates to a reduction in diesel consumption of as much as 350 litres an hour making operations much more CO2 efficient 	Positive	Market Expansion	87
1438		28039	ABB Ltd	In addition the speed of the trucks will increase  meaning you have a higher throughput at the mine	Positive	General	125
1439		28039	ABB Ltd	Operators can also start to think about parking some of their fleet which will bring additional indirect value to overall operational improvements  through better  maintenance planning to improve  fleet availability and fleet longevity	Positive	General	126
1440		28039	ABB Ltd	One example of the revival  of trolley assist systems is at the Aitik open-pit copper mine in Sweden	Positive	New Projects	155
1441		28039	ABB Ltd	By doing so Boliden says it will reduce  its diesel consumption by 5500 cum/y when its investment is complete	Positive	Business Performance	71
1442		28039	ABB Ltd	In addition productivity gains  are added as the electrically powered trucks can run at a higher speed and the working environment for the drivers is also improved  not least through lower noise  levels	Negative	General	127
1443		28039	ABB Ltd	However due to the limitations of existing battery technologies at surface mines we cannot yet manage large  payload trucks of 280-400 tons 254-363 t fully battery equipped 	Positive	Market Expansion	88
1444		28039	ABB Ltd	Companies are therefore trying to close the gap between the trolley and the loading or dumping  point using battery packs and other solutions	Negative	General	128
1445		28039	ABB Ltd	The transformation from diesel to electric is bringing new advantages  in terms of CO2 reduction but also new constraints in terms of mine planning and fleet management	Positive	Market Expansion	89
1446		28039	ABB Ltd	Energy costs represent almost one third of a mining companys total cost base; helping  industry to manage these costs is therefore key	Positive	General	129
1447		28039	ABB Ltd	Having initially adopted a fast follower approach to new digital technologies the risk-averse mining sector has also been slow  to embrace electrification	Negative	General	130
1448		28039	ABB Ltd	A lot of mining companies are looking to the likes  of ABB to influence mining equipment manufacturers and engage them in the electric transformation and so accelerate  the process	Positive	Market Expansion	90
1449		28039	ABB Ltd	A clear technology roadmap and shifting workforce skill  are key to this transition	Positive	General	131
1450		28039	ABB Ltd	The biggest  challenge is that customers are nervous  about redesigning existing diesel-powered mines to integrate new electrification systems	Negative	New Projects	156
1451		28039	ABB Ltd	Ultimately the customer needs a very clear technology roadmap and finding the right  partner for this major undertaking is key	Positive	New Projects	157
1452		28039	ABB Ltd	According to Accentures resources practice the profile of the future mining workforce could change by up to 80% by 2024 driven by increased  adoption of advanced  technologies	Positive	General	132
1453		28039	ABB Ltd	The onus is therefore on mining companies to demonstrate a progressive commitment  to electrification to attract and retain the next generation of digitally literate talent 	Positive	Business Performance	72
1454		28039	ABB Ltd	Today the worldwide situation with COVID-19 may accelerate  these changes faster  than forecast	Positive	General	133
1455		28039	ABB Ltd	Current skill  sets will have to be re-evaluated for the all-electric mines of the future and so the need for change management is key	Positive	Market Expansion	91
1456		28039	ABB Ltd	so the shifting skill  profile is an important  consideration	Positive	General	134
1457		28039	ABB Ltd	Mehrzad Ashnagaran is Global Product Line Manager Electrification at ABB while Michel Serres is VP Innovation  and Digital North America at ABB	Positive	New Projects	158
1458	Positive	28040	Acer Inc	Acer launches Aspire  7 gaming laptop in India New Delhi May 26 IANS	Positive	Business Risk	26
1459		28040	Acer Inc	Acer India on Tuesday launched a new gaminig laptop Aspire  7 in four new variants at a starting price of Rs 54990	Positive	Business Risk	27
1460		28040	Acer Inc	The new Aspire  7 gaming laptop features 156-inch screen with a large  screen-to-body ratio and weighs 215 Kg	Positive	Business Risk	28
1461		28040	Acer Inc	It can be equipped  with up to 9th-gen Intel Core i7 processor or AMD Ryzen 3000 along with latest NVIDIA graphics to keep everything running at its optimum  speed	Positive	Market Expansion	32
1462		28040	Acer Inc	The device gives professionals a max of 1TB M2 PCIe SSD and up to 32GB DDR4 SO-DIMM RAM where users have enough  power and storage to carry out their tasks	Positive	General	96
1463		28040	Acer Inc	In terms of connectivity the Aspire  7 has HDMI and USB 32 ports as well as	Positive	New Projects	104
1464	Positive	28033	ABB Ltd	Zhang Zhiqiang managing director of ABB China told CGTN that the coronavirus pandemic hasnt shaken up the companys confidence  in China and it will continue its investment	Positive	Business Performance	73
1465		28033	ABB Ltd	Zhang said that China is among the most favorable  markets for foreign investment	Positive	Business Performance	74
1466		28033	ABB Ltd	He revealed that China serves as ABBs second biggest  market where more than 90 percent of sales come from local production	Positive	Business Performance	75
1467		28033	ABB Ltd	The following are excerpts from the interview where Zhang talks about the Foreign Investment Law and elaborates on ABBs take on industrial chain restructuring  in the post-epidemic era	Positive	Business Risk	51
1468		28033	ABB Ltd	Like  equal treatment of domestic and foreign companies and intellectual property protection?	Positive	Business Performance	76
1469		28033	ABB Ltd	Zhang: We enjoy  the same treatment in the cities where were operating like  in Xiamen Beijing Shanghai and Chongqing	Positive	General	135
1470		28033	ABB Ltd	We have been treated fairly  and actually whenever we have a problem the government will help  us out	Positive	Business Risk	52
1471		28033	ABB Ltd	In case we need to expand our factory to get more workers from other cities we got support from the local government so we were able  to move our factory like  in Xiamen from the old Xiamen city into the new area before building three 400000 square meters factories for ABB in a very short time which became the biggest  in the world	Positive	New Projects	159
1472		28033	ABB Ltd	And on IP protection  I think thats a very good  progress  we have made in the country	Positive	General	136
1473		28033	ABB Ltd	Its getting a lot better  as we can hardly see any of these direct copies of products as we speak	Positive	Business Performance	77
1474		28033	ABB Ltd	On one sidewe have a very strict  law; on the other side innovation  happens in different companies which fuels competition	Negative	Business Risk	53
1475		28033	ABB Ltd	People are competing on the capability  rather than just copying another product	Positive	Business Risk	54
1476		28033	ABB Ltd	I think thats a very very good  development in China	Positive	New Projects	160
1477		28033	ABB Ltd	How do you make of the argument that multinationals will shift industrial chain out of China in the post-epidemic era?		Business Risk	55
1478		28033	ABB Ltd	Well  I mean ABB is very well  positioned	Positive	Business Performance	78
1479		28033	ABB Ltd	With China India mainly for the local market and for Southeast Asia as well  I think that structure is the best  for industrial companies	Positive	New Projects	161
1480		28033	ABB Ltd	I am willing  to pay the extra cost for that emergencyso I see that product as a possibility	Positive	New Projects	162
1481		28033	ABB Ltd	I do not believe people will move everything into a different country and for that token I also think automation will help 	Positive	General	137
1482		28033	ABB Ltd	If the Chinese company if they also do similar things like  putting up a factory in North America for the American market put a factory in Europe for the European market with robots that will help  reduce  the cost of labor and at the same time you overcome the geographic risk for that market	Positive	Business Risk	56
1483		28033	ABB Ltd	I think that would be the best  solution so it will be the most competitive  company that will win 	Positive	General	138
1484	Negative	28034	Acer Inc	Acer  Intel and other companies could avoid an import ban after a US International Trade Commission judge found there was no violation  of Tela Innovations patent rights under US trade law	Positive	Business Risk	29
1485		28034	Acer Inc	trade Judge Cameron Elliot said notice posted on the agencys website NOTE: Since the ITCs mission is to protect  US markets from unfair trade practices patent owners filing complaints  have to show their inventions are used in products they or their licensees sell in the US Judge found that said notice posted on the agencys website	Negative	Business Risk	30
1486	Negative	28035	Ambuja Cements	Sales decline  2892% to Rs 89816 croreNet profit of Gujarat Ambuja Exports rose 7280% to Rs 5445 crore in the quarter ended March 2020 as against Rs 3151 crore during the previous quarter ended March 2019	Negative	Business Performance	1
1487		28035	Ambuja Cements	Sales declined  2892% to Rs 89816 crore in the quarter ended March 2020 as against Rs 126351 crore during the previous quarter ended March 2019	Negative	Business Performance	2
1488		28035	Ambuja Cements	For the full yearnet profit declined  2640% to Rs 14584 crore in the year ended March 2020 as against Rs 19815 crore during the previous year ended March 2019	Negative	Business Performance	3
1489		28035	Ambuja Cements	Sales declined  509% to Rs 381659 crore in the year ended March 2020 as against Rs 402144 crore during the previous year ended March 2019	Negative	Business Performance	4
1490	Negative	28031	Acer Inc	Acer  Intel and other companies could avoid an import ban after a US International Trade Commission judge found there was no violation  of Tela Innovations patent rights under US trade law	Positive	Business Risk	31
1491		28031	Acer Inc	trade Judge Cameron Elliot said notice posted on the agencys website NOTE: Since the ITCs mission is to protect  US markets from unfair trade practices patent owners filing complaints  have to show their inventions are used in products they or their licensees sell in the US Judge found that said notice posted on the agencys website	Negative	Business Risk	32
1492	Negative	28012	JK Lakshmi Cement Ltd	Shailendra Chouksey CEO JK Lakshmi Cement speaks to ET Now says Eastern region not as badly  impacted  as rest of the country marginal construction activity seen	Negative	General	1
1493		28012	JK Lakshmi Cement Ltd	Points he said during the interview on Quarter 4 earning numbers - A sharp volume decline  of 16% in the quarter gone by -	Negative	Business Performance	1
1494		28012	JK Lakshmi Cement Ltd	I Completely disagree  with the price cartelisation - Price hikes have taken in the range of Rs 5-10 bag	Negative	Business Performance	2
1495		28012	JK Lakshmi Cement Ltd	Migrant labour issues will impact  construction further	Negative	New Projects	1
1496	Negative	28009	Hindustan Petroleum Corp Ltd	There was tension  and panic  among people residing near HPCL Visakh Refinery for about 30 minutes when thick hot smoke  billowed out of the Fluedised Catalytic Cracking Unit-1 of the refinery on Thursday evening	Negative	Business Risk	1
1497		28009	Hindustan Petroleum Corp Ltd	The smoke  that originated from one of the pipelines due to temperature fluctuations has been brought under control  immediately HPCL spokesman said	Negative	Business Performance	1
1498		28009	Hindustan Petroleum Corp Ltd	It has neither caused any damage  nor casualty and it is harmless he stated	Positive	General	1
1499		28009	Hindustan Petroleum Corp Ltd	The sudden development caused tension  among residents of the nearby areas such as Sriharipuram Malkapuram and Gajuwaka	Negative	Business Risk	2
1500		28009	Hindustan Petroleum Corp Ltd	They ran helter-skelter fearing another gas leak  as memories of the May 7 styrene vapour leak  in LG Polymers which killed  12 persons and hospitalised over 350 were still fresh  in their minds	Negative	New Projects	1
1501		28009	Hindustan Petroleum Corp Ltd	Though the incident is minor it has created a lot of fear  among people HPCL Visakh Refinery Contract	Negative	Business Risk	3
1502		28009	Hindustan Petroleum Corp Ltd	With the recent gas leak  incident still fresh  in our memory the billowing smoke  has created a panic-like situation said GA Naidu a resident of Malkapuram	Negative	Business Risk	4
1503		28009	Hindustan Petroleum Corp Ltd	Many even dialled 100 and a team from the Malkapuram Police Station rushed to the spot to remove fear  among the panic-stricken residents	Negative	General	2
1504		28009	Hindustan Petroleum Corp Ltd	People residing in these areas had a bad  experience	Negative	Business Risk	5
1505		28009	Hindustan Petroleum Corp Ltd	Sixty people died  and thousands were evacuated in 1997 due to vapour cloud explosion  in the refinery	Negative	General	3
1506		28009	Hindustan Petroleum Corp Ltd	Later the refinery also released a note stating that smoke  was observed for a brief period at one of the stacks in the plant	Negative	Business Performance	2
1507		28009	Hindustan Petroleum Corp Ltd	It said that the smoke  was caused due to momentary imbalance  in combustion leading to excess smoke  along with steam coming out from the stack and it was controlled in 3 to 4 minutes following a normal operating procedure	Negative	Business Performance	3
1508	Negative	28008	Hindustan Petroleum Corp Ltd	Residents around the Hindustan Petroleum Corporation Limited HPCL refinery in Vizag went into a state of panic  as abnormal  amounts of smoke  was released from the plant on Thursday afternoon	Negative	Business Risk	6
1509		28008	Hindustan Petroleum Corp Ltd	Given that the city folk witnessed dangerous  styrene gas leak  from RR Venkatapurams LG Polymers plant weeks ago many residents fled from their homes after witnessing the smoke  from the HPCL refinery	Negative	Business Risk	7
1510		28008	Hindustan Petroleum Corp Ltd	In the latest the HPCL authorities have verified that the smoke  from the refinery isnt dangerous 	Negative	Business Risk	8
1511		28008	Hindustan Petroleum Corp Ltd	Vizag Mr M Kali Manager of PR and CSR at HPCL stated that residents have no reason to worry  as the smoke  was released as part of a regular procedure	Negative	Business Risk	9
1512		28008	Hindustan Petroleum Corp Ltd	momentary imbalance  in combustion at one of the stacks led  to the excessive smoke  and steam release around 3:10 PM on Thursday	Negative	Business Performance	4
1513		28008	Hindustan Petroleum Corp Ltd	We want to reassure  the citizens that this is part of the regular procedure and the situation was completely brought under control  in 3-4 minutes	Positive	Business Risk	10
1514		28008	Hindustan Petroleum Corp Ltd	No staff member or resident around the refinery was affected as the smoke  wasnt dangerous	Negative	Business Risk	11
1515		28008	Hindustan Petroleum Corp Ltd	This process is just like  vehicles emitting smoke  while the engine starts	Negative	General	4
1516		28008	Hindustan Petroleum Corp Ltd	There is nothing to worry  about it	Negative	New Projects	2
1517		28008	Hindustan Petroleum Corp Ltd	The situation is settled in and around the plant and regular operations commenced  within five minutes of the smoke  being	Negative	Business Risk	12
1518		28008	Hindustan Petroleum Corp Ltd	Videos and images of thick smoke  being emitted from the refinery soon went viral on social media with worried  citizens asking the officials to provide  clarification on the same	Negative	Business Risk	13
1519	Negative	28017	Reliance Industries	Amid back-to-back investments in Jio Platforms and fund raise by Reliance Industries including Indias biggest  rights issue till date the Mukesh Ambani companys stock has remained under-owned among domestic mutual funds	Positive	Business Performance	51
1520		28017	Reliance Industries	While the big slump  in oil market may have nudged fund houses to steer clear of the stock in the previous months April saw them come back to the counter in a big way	Negative	Business Performance	52
1521		28017	Reliance Industries	Reliance Industries RIL was among the most sought-after stocks among domestic fund managers during the month when Dalal Street staged a spectacular rebound from the brutal  March selloff giving benchmarks Sensex and Nifty  nearly 15 per cent lift	Negative	Business Performance	53
1522		28017	Reliance Industries	Besides RIL fund houses also lapped up shares from telecom consumption pharma and auto sectors picking up early signs of revival  in some of these sectors	Positive	Business Performance	54
1523		28017	Reliance Industries	At the same time engineering and construction major Larsen & Toubro was conspicuous  as their biggest  sell candidate during the month	Negative	General	38
1524		28017	Reliance Industries	Analysts said worries  over a crippling  slowdown that stares at the economy may have turned investors cautious on the stock usually considered best  proxy play on Indias growth 	Negative	Business Performance	55
1525		28017	Reliance Industries	Fund managers also mostly shunned  lenders amid rising worries  over a possible spike in bad  loans	Negative	Business Risk	14
1526		28017	Reliance Industries	Yet Nifty  Bank rose over 12 per cent during the month	Positive	Business Performance	56
1527		28017	Reliance Industries	Investment flows to equity funds slowed  down in April amid the Covid-induced lockdown	Negative	Business Performance	57
1528		28017	Reliance Industries	Net flows crashed  to Rs 621296 crore from Rs 11723 crore in March	Negative	Business Performance	58
1529		28017	Reliance Industries	Large  and multicap funds which had seen increased  investor interest in March could not sustain  the momentum	Positive	Business Performance	59
1530		28017	Reliance Industries	RIL was the top  buy among mutual funds as they put in Rs 78051 crore in the index heavyweight data from mutual fund tracker Value Research showed	Positive	Business Performance	60
1531		28017	Reliance Industries	The bet seems to have paid off well  for fund managers as the stock has risen 176 per cent in last one month smartly outperforming  benchmark  Sensex which declined  494 per cent in the same period	Positive	Business Performance	61
1532		28017	Reliance Industries	The outlook for the telecom firm has improved  through the Covid crisis as investors anticipated a surge in use of telecom and internet services as the pandemic demanded social distancing and triggered behavioural change	Positive	General	39
1533		28017	Reliance Industries	Given the current scenario Bharti Airtel is likely to enjoy  further market share as another key player Voda Idea struggles  to survive in the market said analysts at brokerage Anand Rathi	Negative	Business Risk	15
1534		28017	Reliance Industries	On May 8 UBS raised its rating on HUL to buy from neutral and increased  target price to Rs 2400 from Rs 2150 earlierWe believe HULs agility  and channel dominance will enable it to recover faster  than peers as the lockdown eases 	Positive	Business Performance	62
1535		28017	Reliance Industries	The cost focus it has demonstrated should benefit  minority	Positive	Business Performance	63
1536		28017	Reliance Industries	shareholders UBS saidWhile valuations still look somewhat expensive  we believe the negative catalyst around the stake sale surplus is now behind us the brokerage said	Negative	Business Performance	64
1537		28017	Reliance Industries	Fund managers sold Rs 75380 crore worth  of share in	Positive	Business Performance	65
1538		28017	Reliance Industries	They also heavily sold shares of private banks like  ICICI Bank HDFC Bank and Bandhan Bank	Positive	Business Performance	66
1539		28017	Reliance Industries	BSE Bankex has been the most-impacted sectoral index so far this year having eroded 4510 per cent value for the year to date BSE Sensex is down 2721 per cent for this period		Business Performance	67
1540	Positive	28020	Siemens AG	It offers users packaging specific libraries which can be integrated  into existing or new machine applications as well as program blocks	Positive	Business Performance	27
1541		28020	Siemens AG	Typical Basic functionalities that the toolbox provides  are axis control  TCP/IP communication acyclic communication and alarm  handling	Positive	General	16
1542		28020	Siemens AG	The Intelligent  Belt technology function enables sequentially arriving products to be picked up and made available in groups at an unloading position	Positive	Market Expansion	12
1543		28020	Siemens AG	The Intelligent  Infeed application is used to pick up products arriving in a continuous but irregular flow and make them available to the downstream station with defined and equal gaps between them	Positive	Market Expansion	13
1544		28020	Siemens AG	In order to fulfill international packaging standard requirements the Simatic CPG Template Consumer Packaged Goods provides  a TIA Portal project structure based on a modular  design	Positive	Market Expansion	14
1545		28020	Siemens AG	This gives machine builders a clear and tested project basis and end customers a standardized interface that enables easy  line integration	Positive	New Projects	13
1546		28020	Siemens AG	The OMAC software library provides  an OMAC-compliant mode and state manager	Positive	General	17
1547		28020	Siemens AG	There are also motion control  applications for handling equipment the Converting Toolbox and applications for the linear motor based multi-carrier system MCS transport system available	Positive	New Projects	14
1548		28020	Siemens AG	Siemens Digital Industries DI is an innovation  leader in automation and digitalization	Positive	General	18
1549		28020	Siemens AG	With its Digital Enterprise portfolio DI provides  companies of all sizes with an end-to-end set of products solutions and services to integrate and digitalize the entire value chain	Positive	Business Performance	28
1550		28020	Siemens AG	Optimized for the specific needs of each industry DIs unique  portfolio supports customers to achieve greater productivity and flexibility 	Positive	Business Performance	29
1551		28020	Siemens AG	Siemens AG Berlin and Munich is a global technology powerhouse that has stood for engineering excellence  innovation  quality reliability and internationality for more than 170 years	Positive	New Projects	15
1552		28020	Siemens AG	The company is active  around the globe focusing on the areas of intelligent  infrastructure for buildings and distributed energy systems and automation and digitalization in the process and manufacturing industries	Positive	Market Expansion	15
1553		28020	Siemens AG	Through the separately managed companies Siemens Energy the global energy business of Siemens and Siemens Mobility a leading supplier of smart  mobility solutions for rail and road transport Siemens is shaping the energy systems of today and tomorrow as well as the world market for passenger and freight services	Positive	Market Expansion	16
1554		28020	Siemens AG	Due to its majority stakes in the publicly listed companies Siemens Healthineers AG and Siemens Gamesa Renewable Energy as part of Siemens Energy Siemens is also a world-leading supplier of medical technology and digital healthcare services as well as environmentally friendly  solutions for onshore and offshore wind power generation	Positive	General	19
1555	Negative	28011	Hindustan Zinc Ltd	Vedanta group firm Hindustan Zinc Ltd HZL on Thursday reported a 334 per cent decline  in net profit to Rs 1339 crore for the quarter ended March 31	Negative	Business Performance	1
1556		28011	Hindustan Zinc Ltd	Its total income declined  to Rs 4861 crore in the January-March quarter compared with Rs 6030 crore in the year-ago period	Negative	Business Performance	2
1557		28011	Hindustan Zinc Ltd	Chief Executive Officer Sunil Duggal said Industrial activity across the globe is undergoing a level of disruption  never seen since the Second World War	Negative	General	1
1558		28011	Hindustan Zinc Ltd	In these challenging  times our focus is business continuity  and safety of people and operations and supporting  our communities affected by the pandemic	Positive	Business Performance	3
1559		28011	Hindustan Zinc Ltd	He added that the company has ramped up its operations back to normal levels and is confident  of delivering good  performance in 2020-21	Positive	Business Performance	4
1560		28011	Hindustan Zinc Ltd	Its Chief Financial Officer Swayam Saurabh said the company is accelerating its sustainable  cost-reduction programmes and finding new opportunities to control  costs and conserve capital in rapidly-evolving ecosystems	Positive	General	2
1561		28011	Hindustan Zinc Ltd	We are confident  to emerge stronger from the current economic crisis and generate superior  returns for our shareholders he said	Positive	Business Performance	5
1562		28011	Hindustan Zinc Ltd	The company said it has taken a pro-active approach to keep its assets and people safe  while increasing engagement with its communities during these difficult  times of COVID-19	Negative	Business Performance	6
1563		28011	Hindustan Zinc Ltd	The companys operations were halted  from March 22 and most employees were encouraged to work from home barring some who attended the call for duty to keep production assets safe  including critical  care and maintenance	Negative	Business Performance	7
1564		28011	Hindustan Zinc Ltd	To ensure  business continuity  a committee COVID-19 Response War Room was created to identify and implement critical  business decisions to restart mines and plants in a safe  manner and ramp up while ensuring restoration of supply chain	Positive	Business Performance	8
1565		28011	Hindustan Zinc Ltd	The companys mined metal production for the quarter was up two per cent year-on-year to 249000 tonnes despite operations shutdown  from March 22 onwards due to the coronavirus-induced lockdown	Negative	Business Performance	9
1566		28011	Hindustan Zinc Ltd	Owning to uncertainty around ongoing lockdowns and business disruption  risk it said We are deferring guidance  for 2020-21 to the end of the first quarter	Negative	Business Performance	10
1567		28011	Hindustan Zinc Ltd	Our current focus remains around sustaining normal level of productions active  management of costs and capital conservation	Positive	Business Performance	11
1568	Positive	28013	Mahindra & Mahindra Limited	Mahindra & Mahindra Offer New Finance Schemes Top  Published	Positive	Business Performance	3
1569		28013	Mahindra & Mahindra Limited	The benefits  include new finance schemes like  an 8-year loan term 90-days moratorium on payment and 100 percent on-road financing	Positive	General	8
1570		28013	Mahindra & Mahindra Limited	The financial schemes will help  the customers in purchasing a Mahindra vehicle during the lockdown period	Positive	Business Risk	1
1571		28013	Mahindra & Mahindra Limited	The financing schemes will deliver financial flexibility  and empower  the customers to own a Mahindra vehicle at their convenience  the company mentioned in a release on its website	Positive	Business Performance	4
1572		28013	Mahindra & Mahindra Limited	The financial schemes include a 50 percent waiver on the processing fee and the option to buy  now pay later with a 90-day moratorium on payment for the doctors community	Positive	Business Performance	5
1573		28013	Mahindra & Mahindra Limited	The Indian automaker is offering customers a chance to own BSVI-compliant pick-up and pay the same EMI as that of BS-IV vehicle while an SUV customer can also own the vehicle now and start paying the EMI from 2021 it further added		Market Expansion	2
1574		28013	Mahindra & Mahindra Limited	Veejay Nakra CEO Automotive Division M&M commented The introduction of these unique  financing schemes is one more step by Mahindra to support its customers during these challenging  times	Negative	General	9
1575		28013	Mahindra & Mahindra Limited	The bedrock of each one of our schemes is to provide  financial flexibility  and peace  of mind to our customers especially for our COVID warriors who are providing unparalleled  support at this point in time	Positive	Business Performance	6
1576		28013	Mahindra & Mahindra Limited	Together with the various digital interventions which Mahindra has recently announced both in its sales and service these offerings will provide  our customers with a holistic  buying  and owning experience for a Mahindra vehicle	Positive	Business Risk	2
1577		28013	Mahindra & Mahindra Limited	Royal Enfield Bullet 350 Classic  and Himalayan Prices Increased  in India	Positive	Business Performance	7
1578	Positive	28014	Metito	Metito a global leader in smart  water management and alternative energy solutions has been signed up by top  Thai renewable energy power producer Absolute Clean  Energy ACE to conceptualise and execute a comprehensive  water treatment programme for 10 biomass powerplants in 10 different locations in the country	Positive	New Projects	1
1579		28014	Metito	The partnership  marks a company-first with Metito covering an extensive  scope of work for biomass powerplants said the company in a statement	Positive	Business Performance	1
1580		28014	Metito	This is in line with Metitos global expansion  plan that comprises the expansion  of its Chemicals business line to include renewable projects and advanced  applications in Thailand and the wider ASEAN region it added	Positive	Market Expansion	1
1581		28014	Metito	Metitos scope of work includes provision of a water treatment programme for the power plant including pretreatment Reverse Osmosis RO system cooling tower and boiler system; automation system to monitor and control  the cooling tower water parameters to avoid the variation in these parameters during different seasons and operation conditions; onsite service support; scheduled and unscheduled; and training for both operators and management for optimized operations	Positive	General	1
1582		28014	Metito	On the contract win  Managing Director Fady Juez said: Thailand has always been on our radar and therefore we developed a local presence by establishing Metito Thailand - in line with our modus operandi of local presence and global know-how - to oversee our operations and best  manage the local market requirements	Positive	Business Performance	2
1583		28014	Metito	Metito Thailand reflects the vast opportunities we see in this country and we are confident  that working with such high-profile clients such as ACE will enrich  our portfolio in Thailand and in the region beyond he stated	Positive	New Projects	2
1584		28014	Metito	Metito Thailands General Manager Michael Justenhoven said: There is an evident and tangible growth  in the energy sector in Thailand which is being reinforced by the governments initiative towards the use of renewable energy	Positive	General	2
1585		28014	Metito	This is particularly of interest to Metito with its most recent expansion  into the alternative energy sector	Positive	Market Expansion	2
1586		28014	Metito	Metito recognises the countrys potential  to pave way for 100% clean  energy production in the Asia Pacific region and we believe that our newest partnership  with a high-profile client such as ACE will add shared value to all involved and the wider community in Thailand he added	Positive	New Projects	3
1587	Positive	28015	Metito	Share Tweet Google Plus Share Email Metito the global leader of smart  water management and alternative energy solutions has been awarded  by Absolute Clean  Energy PLC ACE Thailands biggest  producer of renewable energy power its latest contract to conceptualise and execute a comprehensive  water treatment program for 10 biomass powerplants in 10 different locations in Thailand	Positive	New Projects	4
1588		28015	Metito	The partnership  marks a company-first with Metito covering an extensive  scope of work for biomass powerplants	Positive	General	3
1589		28015	Metito	This is in line with Metitos global expansion  plan that comprises the expansion  of its Chemicals business line to include renewable projects and advanced  applications in Thailand and the wider ASEAN region	Positive	Market Expansion	3
1590		28015	Metito	Metitos scope of work includes; providing a water treatment program for the power plant including pretreatment Reverse Osmosis RO system cooling tower and boiler system; automation system to monitor and control  the cooling tower water parameters to avoid the variation in these parameters during different seasons and operation conditions; onsite service support; scheduled and unscheduled; and training for both operators and management for optimized operations	Positive	General	4
1591		28015	Metito	Commenting on this announcement Fady Juez Metito Managing Director said: Thailand has always been on our radar and therefore we developed a local presence by establishing Metito Thailand  in line with our modus operandi of local presence and global know-how  to oversee our operations and best  manage the local market requirements	Positive	Business Risk	1
1592		28015	Metito	Metito Thailand reflects the vast opportunities we see in this country and we are confident  that working with such high-profile clients such as ACE will enrich  our portfolio in Thailand and in the region beyond Michael Justenhoven General Manager Metito Thailand also commented: There is an evident and tangible growth  in the energy sector in Thailand which is being reinforced by the governments initiative towards the use of renewable energy	Positive	New Projects	5
1593		28015	Metito	This is particularly of interest to Metito with its most recent expansion  into the alternative energy sector	Positive	Market Expansion	4
1594		28015	Metito	Metito recognises the countrys potential  to pave way for 100% clean  energy production in the Asia Pacific region and we believe that our newest  partnership  with a high-profile client such as ACE will add shared value to all involved and the wider community in Thailand	Positive	New Projects	6
1595		28015	Metito	We are strongly committed  to providing smart  water solutions for all applications; municipal and industrial and this project will be a benchmark  in Thailand for smart  water solutions for sustainable  clean  energy projects added Justenhoven	Positive	New Projects	7
1596		28015	Metito	Metito Thailand is a wholly owned subsidiary of the Metito Group and has been successfully  developing projects with focus on extending the companys Chemicals capabilities and expertise  in the country	Positive	New Projects	8
1597		28015	Metito	As part of the projects technical scope Metitos smart  automation tool; METITO4 will be elemental to control  key water parameters in the cooling tower	Positive	New Projects	9
1598		28015	Metito	METITO4 will improve  operational control  of the cooling tower reduce  downtime and reduce  water and chemical consumption for optimum  operations	Positive	General	5
1599		28015	Metito	Currently ACE has ten biomass power stations around Thailand and was awarded  by the Electricity Generating Authority of Thailand a contract to build additional 20 plants	Positive	New Projects	10
1600	Positive	28016	Nuvoco Vistas Corp Ltd	The Competition Commission of India CCI has approved  the acquisition of 100 per cent of the paid-up share capital of Emami Cement Limited on a fully diluted basis by Nuvoco Vistas Corporation Limited	Positive	Business Performance	1
1601		28016	Nuvoco Vistas Corp Ltd	NVCL is a Nirma promoter  group company and currently operates cement manufacturing units in Chhattisgarh Jharkhand West Bengal Rajasthan and Haryana	Positive	General	1
1602		28016	Nuvoco Vistas Corp Ltd	It is stated to be engaged in the businesses of manufacturing and sale of variety  of grey cements including Portland Pozzolana cement Portland Slag cement and Ordinary Portland cement	Positive	Business Performance	2
1603		28016	Nuvoco Vistas Corp Ltd	It is also engaged in the sale of certain other value-added products like  construction chemicals wall putty and cover blocks an official release said	Positive	Business Performance	3
1604		28016	Nuvoco Vistas Corp Ltd	It is stated to be engaged in the manufacturing and sale of variety  of grey cements including Portland Pozzolana cement Portland Slag cement Ordinary Portland cement and plain cement concrete ie composite cement	Positive	Business Performance	4
1605	Positive	28024	UltraTech Cement	UltraTech is among the largest  global cement manufacturers of grey cement ready  mix concrete and white cement	Positive	Business Risk	1
1606		28024	UltraTech Cement	Its distribution network comprises a network of ~50 cement plants over 100 ready  mix concrete plants more than 650 warehouses and more than 200 railheads in India	Positive	New Projects	1
1607		28024	UltraTech Cement	The company also has a strong  presence in international markets such as Bangladesh UAE Sri Lanka and Bahrain	Positive	Business Performance	1
1608		28024	UltraTech Cement	The total capacity in India has now expanded  to over 11135 MTPA further to the merger of Centurys cement business	Positive	Market Expansion	1
1609		28024	UltraTech Cement	UltraTech provides  a range of products that cater to the various aspects that includes Ordinary Portland Cement Portland Blast Furnace Slag Cement Portland Pozzalana Cement White Cement Ready  Mix Concrete building products and a host of other building solutions	Positive	Market Expansion	2
1610	Positive	28018	Reliance Industries	Throughout the day Reliance RE traded at a premium  to its intrinsic value  or the difference between RILs CMP and the Rights Issue price of Rs 1257	Positive	Business Performance	68
1611		28018	Reliance Industries	This shows great  demand for RILs REs in the secondary market	Positive	New Projects	20
1612		28018	Reliance Industries	This also shows that REs have created great  value for RIL shareholders	Positive	Business Performance	69
1613		28018	Reliance Industries	Together nearly 32 crore Reliance REs were traded on both the stock exchanges together worth  Rs 5889 crore	Positive	Business Performance	70
1614		28018	Reliance Industries	This marked a gain  of 395 per cent	Positive	Business Performance	71
1615		28018	Reliance Industries	The gain  was greater than the increase  in RIL share of 202 per cent with a closing price of Rs 143740 said sources	Positive	Business Performance	72
1616		28018	Reliance Industries	Reliance REs traded at a premium  to their intrinsic value  or the difference between RILs share price and the Rights Issue price of Rs 1257	Positive	Business Performance	73
1617		28018	Reliance Industries	This premium  is generated because of the 18-month period RIL has given to the eligible shareholders to pay for the rights shares	Positive	Business Performance	74
1618		28018	Reliance Industries	A premium  to the intrinsic value indicates a strong  conviction in RILs future course of performance	Positive	Business Performance	75
1619	Positive	28021	Siemens AG	Siemens Mobility Limited has been awarded  a significant  traffic signal maintenance contract in the UK by a consortium of three councils Warwickshire Coventry and Nottingham	Positive	New Projects	16
1620		28021	Siemens AG	The five-year contract which came in to force on 1 April 2020 represents a continuation of the work that the company has successfully  been carrying out for over 20 years in Warwickshire and Nottingham  }	Positive	New Projects	17
1621		28021	Siemens AG	--> Already representing a significant  part of the UK road network in the next three years the Midlands will experience a number of events which will place additional demands on its infrastructure including Birminghams hosting of the Commonwealth Games in 2022 Coventry being named the City of Culture for 2021 and the impact  that HS2 will have across the region  particularly in Warwickshire	Negative	New Projects	18
1622		28021	Siemens AG	Additional traffic signal equipment will also be provided  according to the operational needs of each authority; this could for example be new installations or the upgrade of existing equipment at junctions and pedestrian crossings	Positive	New Projects	19
1623		28021	Siemens AG	Siemens Mobility will also have the opportunity to support the authorities with additional intelligent  transport systems for example car park management	Positive	New Projects	20
1624	Positive	28333	ABB Ltd	The automotive industry operates in a constantly evolving environment that is governed by increasingly stringent  regulations shifting mobility trends and a growing demand for more customised vehicles	Negative	Business Risk	57
1625		28333	ABB Ltd	Automakers are adapting to these changes by building a complex  network of production solutions that are both complex  involving many ancillary facilities across the world; and flexible  so as to quickly respond to new demands and challenges	Negative	Market Expansion	92
1626		28333	ABB Ltd	This complexity in manufacturing has increased  the need for automakers to find new ways to rein in costs and achieve consistency through precise  engineering and rapid  quality inspection	Positive	Business Risk	58
1627		28333	ABB Ltd	The ability to manufacture consistently  high-quality products has a direct bearing on everything from the costs incurred during manufacturing to the time taken for a company to successfully  bring its product to the market	Positive	Business Performance	79
1628		28333	ABB Ltd	In order to achieve this ABB has developed a robotic 3D vision and metrology 3DVM system which is the latest quality inspection solution that provides  fast automated  and accurate  metrology testing to dramatically speed up production and help  manufacturers build more efficient  processes reduce  costly rework and lessen scrappage	Positive	Business Risk	59
1629		28333	ABB Ltd	The 3DVM system is an integrated  solution that combines an industrial robot mounted with ABBs 3D optical scanner that inspects quality based on geometrical measurements	Positive	Business Risk	60
1630		28333	ABB Ltd	The system is capable  of detecting defects less than half the width of a human hair and those that are imperceptible to the naked eye	Positive	Business Risk	61
1631		28333	ABB Ltd	This eliminates the need for time consuming manual inspections while also significantly  reducing the likelihood of faults  and errors said Toni Roda ABBs Global Product Manager for Vision	Negative	Business Risk	62
1632		28333	ABB Ltd	The 3DVM system can be used on both off-line and in-line testing stations and uses a single 3D camera which eliminates the possibility of views overlapping while reducing hardware failures 	Negative	Business Risk	63
1633		28333	ABB Ltd	The system is immune  to vibrations and variations in ambient conditions due to its photogrammetric self-compensation and can detect anomalies at 20 microns	Positive	Business Risk	64
1634		28333	ABB Ltd	Adjustable  light power provides  accurate  results regardless of light conditions while the system can also differentiate between shiny  and black surfaces without the need for spray	Positive	Business Performance	80
1635		28333	ABB Ltd	ABB also offers a complete 3D robot inspection cell made up of a robot and a rotating table on which the manufactured part is placed either manually or with the help  of another robot	Positive	New Projects	163
1636		28333	ABB Ltd	ABB has simplified  robot programming by enabling operators to easily instruct the robot on what points of the part that need to be checked	Positive	Business Risk	65
1637		28333	ABB Ltd	The system calculates the best  path for the robots arm and executes the movement	Positive	Business Performance	81
1638		28333	ABB Ltd	The 3D model of the part can be rotated completely for the operator to check for anomalies allowing manufacturers to take corrective measures without having to disrupt  the entire production line	Negative	Business Risk	66
1639		28333	ABB Ltd	The benefits: Speed The 3DVM robot quality inspection system offers a host of advantages over previously use machine and manual inspection methods of which speed of inspection is a game changer		New Projects	164
1640		28333	ABB Ltd	Moreover the 3D optical scanner is able  to capture about 5 million points for inspection nearly 2 million more than traditional CMM systems	Positive	New Projects	165
1641		28333	ABB Ltd	The high-speed inspection allows companies to conduct quality control  on many more parts than traditional CMM systems	Positive	New Projects	166
1642		28333	ABB Ltd	So in the case of a faulty  part instead of scrapping the entire batch due to the lack  of time for further inspection operators can quickly conduct more checks and reduce  the rate of scrappage	Negative	Business Risk	67
1643		28333	ABB Ltd	Easy  automation Unlike traditional metrology processes that are housed in laboratories or built on linear axis at a dedicated  spot of the factory floor	Positive	New Projects	167
1644		28333	ABB Ltd	 the 3D robot quality inspection system by ABB is a modular  solution that can be installed in the production area or where quality analysis needs to take place	Positive	New Projects	168
1645		28333	ABB Ltd	This enables the system to work automatically with minimal or no human intervention for a task that is arduous  and repetitive	Negative	General	139
1646		28333	ABB Ltd	A touch screen provides  an intuitive  interface for operations while employees need only two days of training to handle and control  the full operation of the unit	Positive	Business Risk	68
1647		28333	ABB Ltd	The use of the 3D optical scanner automatically digitalises the quality inspection and opens new avenues to further improve  the process	Positive	Business Risk	69
1648		28333	ABB Ltd	The 3DVM system provides  comprehensive  data recording capabilities where information is processed in real time using multiprocessor technology	Positive	General	140
1649		28333	ABB Ltd	This gives operators quick access to vital  records for future auditing purposes	Positive	General	141
1650		28333	ABB Ltd	We are now testing the ability for the robot inspection system to harness machine learning and artificial intelligence  capabilities to improve  the quality performance and speed of inspection automatically said Roda	Positive	Business Performance	82
1651	Positive	28337	ABB Ltd	It will allow us to deliver a wide range of essential  electrical products to contractors and industrial builders with significantly improved lead times cutting many delivery times by half	Positive	General	142
1652	Positive	28332	ABB Ltd	 ABB Robotics manufacturer of industrial robots and robotic systems is using a big data analytics software solution developed by Lexi Solution AB in Sweden to optimize  procurement and engineering processes	Positive	New Projects	169
1653		28332	ABB Ltd	Based on this solution ABB is able  to automate and improve  supply chain management processes for supplier monitoring and targeted cost reduction	Positive	General	143
1654		28332	ABB Ltd	As part of its work Lexi helped ABB Robotics implement its MasterBOM solution as the underlying technology enabling digital transformation and simplification of critical  business functions in Procurement and Engineering	Negative	General	144
1655		28332	ABB Ltd	This new cooperation  building on work Lexi has done for ABB on a global level for many of its business areas for many years is one of Lexis largest  software subscription purchase orders to date	Positive	New Projects	170
1656		28332	ABB Ltd	Quentin Caillault ABB Robotics Control  System Solution Manager is delighted  with the results delivered by the solution to date commenting that By their very nature global electronic supply chains such as ABBs are extremely complex  and require advanced  digital tools to gain  transparency and control 	Positive	Business Risk	70
1657		28332	ABB Ltd	To master  this complexity we needed first and foremost  a tool that could ensure  that were working with data that is clean  accurate  and constantly updated	Positive	Business Performance	83
1658		28332	ABB Ltd	Lexis platform is an integral  part of the digital procurement suite embedded in the ABB Robotics supply chain management ecosystem bringing data quality and powerful  market analytics to optimise our product cost and risk management	Positive	New Projects	171
1659		28332	ABB Ltd	About Lexi Lexi brings transparency to supply chain management with its unique  cloud-based enterprise software solution that uses machine learning to provide  authenticated accurate  product details to Original Equipment Manufacturers OEMs	Positive	General	145
1660		28332	ABB Ltd	Founded in Stockholm in 2011 and with a Data Operations Center in Penang Malaysia Lexi delivers data-driven business intelligence  insights to prioritize actions for OEMs to lower costs and improve  supply chain health	Positive	New Projects	172
1661		28332	ABB Ltd	With its predictive and prescriptive optimization algorithms Lexi empowers manufacturing engineering supply chain and procurement leaders to make faster  smarter  product design and sourcing decisions	Positive	General	146
1662	Positive	28334	ABB Ltd	ABBs end-to-end solution is designed to help  operators manage costs in real time with intelligent  energy management	Positive	General	147
1663		28334	ABB Ltd	Each of the two new charging sites which are located on the A2 motorway at the Inseli and Chilchbuehl rest stops is equipped  with an ABB Terra 54 charger which provides  one 50 kW DC fast  charging point and one Level 2 charging point as well as a 350 kW Terra DC fast  charger with two additional charging points	Positive	New Projects	173
1664		28334	ABB Ltd	ABB says dynamic  power sharing between the charging posts will enable  them to charge higher-power vehicles such as trucks or buses	Positive	New Projects	174
1665		28334	ABB Ltd	ABB also provided  a 170 kWh battery energy storage system with power output of 330 kW to help  reduce  operating costs through peak shaving and to enhance  system availability and reliability	Positive	Market Expansion	93
1666		28334	ABB Ltd	Energy management is facilitated by ABBs cloud-based Ability Optimax system		Market Expansion	94
1667		28334	ABB Ltd	Thanks to the combination of storage and energy management the local supply network does not have to directly cover the peak load during charging which significantly  reduces costs	Positive	Business Performance	84
1668		28334	ABB Ltd	ABBs complete solution helps  shave peaks in demand and reduces the associated higher tariffs they incur optimizing operating costs and maximizing return on investment said ABBs Frank Muehlon	Positive	Business Risk	71
1669		28334	ABB Ltd	For energy suppliers entering the e-mobility sector ABB chargers provide  all the flexibility  connectivity and features needed to enable  such new business models to succeed Primeo Energie plans to deploy three more similarly-equipped highway charging stations in 2020	Positive	Market Expansion	95
1670	Positive	28335	ABB Ltd	In addition to creating more than 100 jobs in the Phoenix area the site will enable  faster  service and delivery times for a broad  range of daily needed electrical products and in-stock items such as Ty- Rap cable ties Color-Keyed lugs Steel City commercial boxes and fittings and Elastimold cable accessories	Positive	General	148
1671		28335	ABB Ltd	It will allow us to deliver a wide range of essential  electrical products to contractors and industrial builders with significantly improved lead times cutting many delivery times by half said Chet Akiri US Managing Director for Installation Products	Positive	General	149
1672		28335	ABB Ltd	We are stocked in Phoenix and are excited  to grow the business	Positive	Business Performance	85
1673		28335	ABB Ltd	We look forward  to continuing to work to better  serve our customers across the US every day The new facility is part of our expansion  plans to increase  volume capacity and further enhance  the speed and service capabilities of ABB Installation Products said Christy Tilton US Sales Leader for Installation Products	Positive	Market Expansion	96
1674		28335	ABB Ltd	This exciting  expansion  is possible because of the commitment  of our employees to better  serve our valued customers	Positive	General	150
1675		28335	ABB Ltd	ABB Installation Products  formerly Thomas & Betts is a global leader in the design manufacture and marketing of products used to manage the connection protection  and distribution of electrical power in industrial construction and utility applications	Positive	Business Performance	86
1676		28335	ABB Ltd	With a portfolio of more than 200000 products marketed under more than 37 premium  brand  names ABB Installation Products are found wherever electricity is used	Positive	Business Performance	87
1677		28335	ABB Ltd	ABB ABB: NYSE is a leading global engineering company that energizes the transformation of society and industry to achieve a more productive  sustainable  future	Positive	New Projects	175
1678		28335	ABB Ltd	With a history of excellence  stretching back more than 130 years ABBs success  is driven by 144000 talented  employees in over 100 countries	Positive	General	151
1679	Positive	28336	ABB Ltd	ABBs new I/O solution will enable  agile  and immediate expansion  of brownfield sites and pave the way for greater digital connectivity in greenfield operations	Positive	Market Expansion	97
1680		28336	ABB Ltd	Digitalization in the oil and gas industry means that reliable  connectivity sits at the heart of successful  operations	Positive	Business Risk	72
1681		28336	ABB Ltd	Wellheads often need to achieve extended connectivity rapidly to meet unforeseen  expansion  opportunities but until now many brownfield sites have been hampered  by a lack of agility  in existing systems	Positive	Market Expansion	98
1682		28336	ABB Ltd	The launch of ABBs XIO unlocks them from past technology choices by providing immediate connectivity expansion  which avoids the need for costly  system upgrades	Negative	Market Expansion	99
1683		28336	ABB Ltd	The new smart  remote I/O expansion  unit works in conjunction with ABBs RMC-100 Controller to offer easy  expansion  of up to 22 I/O modules automating and enhancing production	Positive	New Projects	176
1684		28336	ABB Ltd	A unique  combination of features is brought together in the XIO	Positive	New Projects	177
1685		28336	ABB Ltd	These include easy  installment thanks to the XIOs auto-detection configuration with pre-configured I/O	Positive	General	152
1686		28336	ABB Ltd	The smart  remote expansion  units I/O modules include hot  swappable features which have the advantage of also being backwards compatible 	Positive	Market Expansion	100
1687		28336	ABB Ltd	Along with 22 I/O modules the XIO provides  four Ethernet and eight Serial Ports with essential  wireless and Bluetooth capabilities	Positive	Market Expansion	101
1688		28336	ABB Ltd	Bringing together these features in one unique  digital solution means that the XIO helps  oil and gas producers meet some of their key challenges	Positive	Business Risk	73
1689		28336	ABB Ltd	It addresses skill  shortages because it is simple to install and offers one central point to monitor reducing the number of tools to be learned and run	Positive	General	153
1690		28336	ABB Ltd	It also ensures greater safety across all areas of multiple sites by helping  to increase  the monitoring of process variables	Positive	General	154
1691		28336	ABB Ltd	As well as extending ABBs RMC-100 controller and XSeries controllers the XIO is compatible  with a wide range of controllers across the market underlining ABBs industry commitment  to open architecture across all areas of industrial automation	Positive	New Projects	178
1692		28336	ABB Ltd	Connectivity is what also ties devices edge and the cloud  together across standards into one homogenous system	Negative	General	155
1693		28336	ABB Ltd	By offering scalable  digitalization the XIO also opens up the digital future for greenfield operations	Positive	Market Expansion	102
1694	Positive	28338	ABB Ltd	ABB Wet End Control  offers process stabilization variability reduction and performance optimization for all paper board and tissue manufacturers ABB has today launched the latest generation of its Advanced Process Control  APC to provide  complete digital control  over wet end operations optimizing productivity and profit for paper mills globally	Positive	Market Expansion	103
1695		28338	ABB Ltd	Wet End Control  - an ABB Ability APC solution for paper mills - stabilizes the wet end process and reduces variability by controlling monitoring and optimizing retention performance	Positive	Business Performance	88
1696		28338	ABB Ltd	It uses a multivariable model predictive control  approach to predict future wet end process behavior making automatic  adjustments to stabilize  ash levels reduce  white water consistency variability and minimize chemical and filler dosages	Positive	Business Risk	74
1697		28338	ABB Ltd	This results in improved  machine runnability by helping  to reduce  sheet breaks and accelerating grade changes and break  recovery	Positive	Business Performance	89
1698		28338	ABB Ltd	It is available as a subscription-based service delivered via ABB Ability Collaborative  Operations with structured remote monitoring and expert analysis of control  performance for sustainable  results	Positive	New Projects	179
1699		28338	ABB Ltd	In addition to its impact  on productivity Wet End Control  helps  to minimize raw material chemical costs and broke  usage ultimately reducing the environmental impact  and leading to lower steam consumption and increased  energy savings  	Positive	General	156
1700		28338	ABB Ltd	We know that continuous monitoring of wet end operations is crucial  to driving process improvements  said Ramesh Satini global product manager for Pulp & Paper Control  Systems ABB 	Positive	Business Risk	75
1701		28338	ABB Ltd	We developed our Wet End Control  solution to address this need by automatically managing targets and implementing cost efficiencies within process constraints	Positive	Market Expansion	104
1702		28338	ABB Ltd	By adopting this ABB service mills will benefit  from ongoing insight and collaboration to optimize  stability for long-term gains  and minimized operator interventions	Positive	General	157
1703		28338	ABB Ltd	Wet End Control  is part of a fully integrated  quality measurement control  and optimization solution that works seamlessly with ABB Ability 800xA control  system or a third-party alternative via OPC interface	Positive	Market Expansion	105
1704		28338	ABB Ltd	ABBs latest APC platform allows dynamic  model adaption to capture varying process dynamics for tighter control  while optimally working within operational parameters to maximize the economic gain	Positive	New Projects	180
1705		28338	ABB Ltd	The solution is suitable  for all mills seeking a quality measurement control  and optimization solution that enables paper specifications to be met at the lowest possible cost	Positive	New Projects	181
1706		28338	ABB Ltd	ABB is a trusted  partner and leading supplier to the pulp and paper industry offering deep expertise  and a comprehensive  portfolio of integrated  digital solutions automation and electrification systems industry-focused products and comprehensive  services to help  our customers optimize  all phases of the papermaking process	Positive	Market Expansion	106
1707		28338	ABB Ltd	We are committed  to serving packaging paper tissue and pulp producers to help  drive availability performance cost and quality improvements 	Positive	New Projects	182
1708		28338	ABB Ltd	wwwabbcom/pulpandpaper ABBABBN: SIX Swiss Ex is a leading global engineering company that energizes the transformation of society and industry to achieve a more productive  sustainable  future	Positive	New Projects	183
1709		28338	ABB Ltd	With a history of excellence  stretching back more than 130 years ABBs success  is driven by 144000 talented  employees in over 100 countries	Positive	General	158
1710	Positive	28313	Acer Inc	Taipei June 26 CNA Acer Inc one of Taiwans leading PC vendors which is making efforts to transform  itself from a pure PC brand  to a lifestyle brand  has set up a new drinks business division and will put its own energy drink on sale in July	Positive	Business Performance	73
1711		28313	Acer Inc	Acer Chairman Jason Chen ??? told reporters earlier this week that Acer is launching  its first energy drink named Predator Shot which is an extension of the product line from its gaming PC Predator series	Positive	General	97
1712		28313	Acer Inc	Chen said the PC market is mature  with a lot of competition and that Acer cannot afford to just sit there to wait for any positive  change under such circumstances	Positive	Business Performance	74
1713		28313	Acer Inc	Instead Chen said Acer has to do more vaulting itself over the business boundary which is why it is seeking to become a lifestyle brand  by selling beverages related to its core PC business	Positive	Business Performance	75
1714		28313	Acer Inc	According to Acer Predator Shot contains vitamins and minerals including vitamin B Chen said gamers also need Lutein to protect  their eyes when they spend a long time staring at a PC screen	Positive	General	98
1715		28313	Acer Inc	In 2019 non-PC operations accounted for 15 percent of Acers total sales up from 6-7 percent six years ago the PC brand  said	Positive	Business Performance	76
1716		28313	Acer Inc	According to Gartner Acer ranked as the fifth-largest PC supplier in the world in the first quarter of 2020 with a market share of 56 percent behind Chinas Lenovo Group Ltd 244 percent		Business Performance	77
1717	Positive	28286	ABB Ltd	ABB Power Grid informed  the bourses that it has signed a memorandum of understanding MoU with National Institute of Technology Warangal NITW Telangana to drive smart  electric grid technology education skill  development and research	Positive	New Projects	184
1718		28286	ABB Ltd	As part of the collaboration the company will partner with the Department of Electrical Engineering of NITW to develop a unique master  of technology program in a smart  electric grid SEG from the current academic year	Positive	General	159
1719		28286	ABB Ltd	Speaking on the announcement N Venu Managing Director of ABB Power Grids India stated that developing the right  talent  pool was crucial  for building a sustainable  grid for the future	Positive	Business Performance	90
1720		28286	ABB Ltd	He added that the company is pleased  to join hands with NITW and aims to achieve higher levels of technical excellence  in its domain	Positive	General	160
1721	Positive	28289	ABB Ltd	Based on this solution ABB is able  to automate and improve  supply chain management processes for supplier monitoring and targeted cost reduction	Positive	General	161
1722		28289	ABB Ltd	As part of its work Lexi helped ABB Robotics implement its MasterBOM solution as the underlying technology enabling digital transformation and simplification of critical  business functions in Procurement and Engineering	Negative	General	162
1723		28289	ABB Ltd	This new cooperation  building on work Lexi has done for ABB on a global level for many of its business areas for many years is one of Lexis largest  software subscription purchase orders to date	Positive	New Projects	185
1724		28289	ABB Ltd	By their very nature global electronic supply chains such as ABBs are extremely complex  and require advanced  digital tools to gain  transparency and control 	Positive	Business Risk	76
1725		28289	ABB Ltd	To master  this complexity we needed first and foremost  a tool that could ensure  that were working with data that is clean  correct complete and up to date	Positive	Business Performance	91
1726		28289	ABB Ltd	Lexis platform is an integral  part of our digital procurement suite in Robotics supply chain management ecosystem bringing data quality and powerful  market analytics to our structured approach to product cost and risk management says Quentin Caillault ABB Robotics Controls Solution Manager in a press release	Positive	New Projects	186
1727	Positive	28290	ABB Ltd	ABB Power Grids India has signed a Memorandum of Understanding MoU with the National Institute of Technology Warangal NITW Telangana for cooperation  to drive smart  electric grid technology education skills development and research activities	Positive	New Projects	187
1728		28290	ABB Ltd	Indias electric grid is transforming with the penetration of renewables and the need for reliable  power under the One Nation 	Positive	Market Expansion	107
1729		28290	ABB Ltd	The government is striving  to provide  24x7 power for all the households while honoring  its climate commitments and Sustainable  Development Goals	Positive	Business Performance	92
1730		28290	ABB Ltd	A smart  grid can help  balance both facilitating a safe  cost-effective clean and reliable  power network	Positive	General	163
1731		28290	ABB Ltd	For a nation-wide smart  electric grid Indias education system and future talent  play a vital  role	Positive	General	164
1732		28290	ABB Ltd	In recognizing this need ABB Power Grids India has partnered with the Department of Electrical Engineering of NITW to develop a unique  Master  of Technology MTech program in Smart  Electric Grid SEG from the current academic year	Positive	General	165
1733		28290	ABB Ltd	This is an important  partnership  that will strengthen  collaboration between academia and industry said N Venu Managing Director ABB Power Grids India	Positive	General	166
1734		28290	ABB Ltd	Building the right  talent  pool is crucial  for building a sustainable  grid of the future	Positive	New Projects	188
1735		28290	ABB Ltd	And we are really pleased  to be partnering with NITW to achieve higher levels of technical excellence  in this domain	Positive	New Projects	189
1736		28290	ABB Ltd	This is part of our continued focus on education and skill  development	Positive	New Projects	190
1737		28290	ABB Ltd	 aligned with initiatives such as Skill  India - and will help  advance efforts in bringing power to all while cutting carbon emissions he added	Positive	General	167
1738	Positive	28292	ABB Ltd	ABB Power Grids India has signed a Memorandum of Understanding MoU with the National Institute of Technology Warangal NITW Telangana for cooperation  to drive smart  electric grid technology education skills development and research activities	Positive	New Projects	191
1739		28292	ABB Ltd	Indias electric grid is transforming with the penetration of renewables and need for reliable  power under the One Nation - One Grid - One Frequency roadmap	Positive	Business Risk	77
1740		28292	ABB Ltd	The government is striving  to provide  24x7 power for all the households while honoring  its climate commitments and Sustainable  Development Goals	Positive	Business Performance	93
1741		28292	ABB Ltd	A smart  grid can help  balance both facilitating a safe  cost-effective clean and reliable  power network	Positive	General	168
1742		28292	ABB Ltd	For a nation-wide smart  electric grid Indias education system and future talent  play a vital  role	Positive	General	169
1743		28292	ABB Ltd	In recognizing this need ABB Power Grids India has partnered with the Department of Electrical Engineering of NITW to develop a unique  Master  of Technology MTech program in Smart  Electric Grid SEG from the current academic year	Positive	General	170
1744		28292	ABB Ltd	This is an important partnership  that will strengthen  collaboration between academia and industry said N Venu Managing Director ABB Power Grids India	Positive	General	171
1745		28292	ABB Ltd	Building the right  talent  pool is crucial  for building a sustainable  grid of the future	Positive	New Projects	192
1746		28292	ABB Ltd	And we are really pleased  to be partnering with NITW to achieve higher levels of technical excellence  in this domain	Positive	New Projects	193
1747		28292	ABB Ltd	This is part of our continued focus on education and skill development - aligned with initiatives such as Skill  India - and will help  advance efforts in bringing power to all while cutting carbon emissions he added	Positive	General	172
1748		28292	ABB Ltd	NITW has dedicated  itself to creating a healthy  academic environment and attuning education research and technological advancements with societal aspirations 	Positive	General	173
1749		28292	ABB Ltd	Its mission is to impart quality education to produce globally competent electrical engineers advance the development of cutting-edge and sustainable  technologies and nurture scientific temperament professional ethics and industrial collaboration	Positive	New Projects	194
1750		28292	ABB Ltd	Prof N V Ramana Rao Director NITW said: The development of Indias power network has become a driving force in meeting the demand for rapid  growth  in urban and rural areas	Positive	Business Performance	94
1751		28292	ABB Ltd	Our aim is to create the right  educational  framework and environment that enables a cleaner  greener  and smarter  grid	Positive	Business Performance	95
1752		28292	ABB Ltd	We are extremely glad  to have partnered with the best  in industry for this endeavor	Positive	New Projects	195
1753		28292	ABB Ltd	The pioneering technology company will help  NITW create a socially-relevant and yet internationally-acceptable curriculum implement innovative and effective  teaching methodologies and sharpen focus on the wholesome  development of students at the Institute over the next five years	Positive	General	174
1754		28292	ABB Ltd	In addition to crafting the course content for the program ABB Power Grids India team will support the Institute in setting up a laboratory for SEG technology and provide  internship opportunities for SEG for the MTech students and PhD scholars	Positive	General	175
1755	Positive	28294	ABB Ltd	National Institute of Technology Warangal and ABB Power Grids India has signed a Memorandum of Association MoU to drive smart  electric grid technology education skills development and research activities	Positive	New Projects	196
1756		28294	ABB Ltd	NIT Warangal will be creating an educational  framework for reliable  and clean  power for all	Positive	General	176
1757		28294	ABB Ltd	A key component of their collaboration will be the launch of a unique  Master  of Technology programme in Smart  Electric Grid SEG from the current academic year	Positive	General	177
1758		28294	ABB Ltd	According to a press release the education system and future talent  have to play a vital  role for a nationwide smart  electric grid	Positive	General	178
1759		28294	ABB Ltd	Towards this ABB Power Grids India has partnered with the Department of Electrical Engineering of NITW to develop a unique  MTech programme in Smart  Electric Grid	Positive	New Projects	197
1760		28294	ABB Ltd	NITW Director NV Ramana Rao highlighted that the development of the countrys power network has become a driving force in meeting the demand for rapid  growth  in urban and rural areas Our aim is to create the right  educational  framework and environment that enables a cleaner  greener  and smarter 	Positive	General	179
1761		28294	ABB Ltd	Benefits  of the programme ABB Power Grids India will be helping  NIT Warangal in creating a socially-relevant and internationally accepted curriculum implement innovative and effective teaching methodologies and will focus on the holistic  development of students over the next five years	Positive	General	180
1762		28294	ABB Ltd	Furthermore the company will support the institute in setting up a laboratory for SEG technology and provide  internship opportunities for SEG for the MTech students and PhD scholars	Positive	General	181
1763		28294	ABB Ltd	On the MoU between both the parties ABB Power Grids India Managing Director N Venu stated that this partnership will strengthen  the collaboration between academia and industry	Positive	General	182
1764		28294	ABB Ltd	He further said that for building a sustainable  grid of the future building the right  talent  pool is important 	Positive	Business Performance	96
1765	Neutral	28295	ABB Ltd	en más de 80 países ABB es el socio industrial ideal  para	Positive	New Projects	198
1766		28295	ABB Ltd	 que fabrica vehículos eléctricos y tecnologías relacionadas Liberty  Charge que ayuda a crear una infraestructura de energía	Positive	New Projects	199
1767	Positive	28302	ABB Ltd	TV will be a day of global e-mobility appreciation 	Positive	General	183
1768		28302	ABB Ltd	Current and prospective drivers of electric vehicles alongside local transport authorities and fleet operators will be encouraged to recognize the crucial  role which they play in driving the shift to sustainable  road transport and a zero-emission future for all	Positive	General	184
1769		28302	ABB Ltd	The day will become an annual institution and will also recognize the vital  role which reliable  and fast  charging infrastructure grid reinforcement and the integration of renewable power generation must play in enabling a truly sustainable  transport ecosystem	Positive	General	185
1770		28302	ABB Ltd	Frank Muehlon Head of ABBs global business for E-mobility Infrastructure Solutions said: This is a crucial  time for transitioning to a new electrified and sustainable  model for mobility	Positive	General	186
1771		28302	ABB Ltd	As part of ABB Electrifications Mission to Zero we are at the forefront of making this transition possible and a global day which recognizes and celebrates worldwide the importance of e-mobility solutions is something that ABB is delighted  to be the lead partner on	Positive	Market Expansion	108
1772		28302	ABB Ltd	With ABBs unrivalled expertise  in electrification and its global leadership in electric vehicle charging solutions having sold more than 14000 DC fast  chargers across more than 80 countries ABB is the perfect  industry partner for World EV Day	Positive	Market Expansion	109
1773		28302	ABB Ltd	ABB recently received the Global E-mobility Leader 2019 award  for its role in supporting  the international adoption of sustainable  transport solutions	Positive	New Projects	200
1774		28302	ABB Ltd	TV added: Im delighted  to be working with ABB to begin an exciting  journey towards a global institution in the e-mobility calendar: World EV Day will serve as a day of celebrating e-mobility as a key tool in driving a decarbonized transport future for all World EV Day will be working with other partners and leaders in the e-mobility sector to make the inaugural World EV Day the start of an international mobility movement	Positive	Market Expansion	110
1775		28302	ABB Ltd	Additional partners include Mahindra Electric Mobility which manufactures electric vehicles and related technologies Liberty  Charge which helps  deliver power and connectivity infrastructure for on-street EV Charging in residential areas of the UK and manufacturer of all electric trucks Volta Trucks	Positive	Business Risk	78
1776		28302	ABB Ltd	TV in launching  World EV Day a global day to highlight  the importance of sustainable  mobility and to make electric mobility a preferred  choice of customers across the globe	Positive	Business Performance	97
1777	Positive	28305	Acer Inc	He has also gained  extensive  experience throughout his career from operational management in-store activations and activity to wholesale contractual negotiations and ranging planning He has also achieved various certifications and completed extended courses including ITIL Leading with Emotional Intelligence  Sales Negotiation Retail and Omnichannel Management and the Fundamentals of Project Planning and Project Management to name but	Positive	New Projects	105
1778		28305	Acer Inc	a few Glenn is no stranger  to Acer having been with us since December 2015	Positive	Business Performance	78
1779		28305	Acer Inc	Were very excited to welcome  him to the new role as General Manager of Acer Africa said Paul Collins  Acer Africa Country Manager Collins added With such a strong  background in the retail and wholesale sector as well as specialist understanding on omnichannel retailing and integration of technology solutions in consumer behaviour we look forward  to the mutually beneficial  collaboration that is sure to come from this	Positive	General	99
1780	Positive	28308	Acer Inc	Acer has been hosting its own online global press conference and its announced a raft of updates to its existing lineup of gaming laptops and desktops in a bid to win  over the hearts and wallets of PC gamers from its rivals Asus and Dell	Positive	Business Performance	79
1781		28308	Acer Inc	RTX 2080 Super  and RTX 2070 Super  graphics cards	Positive	New Projects	106
1782		28308	Acer Inc	These are the best  laptops of 2020 Our pick of the best  desktop PCs	Positive	Business Performance	80
1783		28308	Acer Inc	How about the best  PC games of 2020?	Positive	General	100
1784		28308	Acer Inc	The flagship gaming laptop from Acer the Predator Helios 700 has been upgraded  with an aim to offer the kind of performance youd usually expect from the best  gaming PCs	Positive	Business Risk	33
1785		28308	Acer Inc	This laptop then is going to be pretty powerful  and will run hot as well  especially with the overclockable CPU so Acer claims it has overhauled the thermal solution  called Predator PowerGem  with all models using the i9 chip to help  keep it cool	Positive	Business Risk	34
1786		28308	Acer Inc	It also supportsd up to 64GB of 2933Hz RAM and comes with Killer  DoubleShot Pro connectivity	Negative	General	101
1787		28308	Acer Inc	Acer Predator Triton 300 Acers slim and lightweight  Triton 300 laptop is also getting an upgrade with 10th gen Intel Core H-series CPUs and up to	Positive	New Projects	107
1788		28308	Acer Inc	The screen also offers 100% sRGB making it a good  call for creatives	Positive	General	102
1789		28308	Acer Inc	Its also got an impressively thin  and light build 199 mm 078 inches thin  and 21 kg 463 lbs for a gaming laptop	Negative	Business Performance	81
1790		28308	Acer Inc	RTX 2080 TI GPUs in SLI and better  thermal performance	Positive	New Projects	108
1791		28308	Acer Inc	thanks to new Predator FrostBlade fans  which Acer claims will provide  up to 15% more airflow	Positive	General	103
1792		28308	Acer Inc	Acer also announced the Predator X25 monitor a 245-inch 1080p monitor with a huge 360Hz refresh  rates and supports 99% of the sRGB color gamut	Positive	General	104
1793		28308	Acer Inc	four new Predator XB3 series monitors: the 315-inch Predator XB323QK NV the 27-inch Predator XB273U GS and Predator XB273U GX plus the 245-inch Predator XB253Q GZ with up to 240Hz refresh  rates and up to 4K resolutions	Positive	General	105
1794		28308	Acer Inc	These monitors also come with RGB LightSense technology which beams colored light behind the monitor  like  the Ambilight feature of Philips monitors	Positive	General	106
1795		28308	Acer Inc	While a lot of the updates to Acers gaming range arent the most revolutionary  changes weve seen they do mean that the companys gaming devices can go toe-to-toe with its competitors	Positive	Business Performance	82
1796		28308	Acer Inc	Acer also announced that it will continue to create products to help  protect  people against Covid-19	Positive	Business Performance	83
1797	Negative	28309	Ador Welding Ltd	Ador Welding AWL reported consolidated revenues at Rs 1399 crore down 69% YoY impacted  by disrupted business activities across sectors	Negative	Business Performance	25
1798		28309	Ador Welding Ltd	76 crore down 232% YoY impacted  by higher other operating expenses owing to one-time provisions	Negative	Business Performance	26
1799		28309	Ador Welding Ltd	EBITDA margins fell  160 bps YoY to 76%	Negative	Business Performance	27
1800		28309	Ador Welding Ltd	However gross  margins for Q4FY20 FY20 improved  280 bps 100 bps to ~29% 304% respectively	Negative	Business Performance	28
1801		28309	Ador Welding Ltd	EBITDA margin for FY20 was at 82% with a marginal decline  of 40 bps YoY PAT was at Rs 69 crore down 88% YoY supported  by lower effective  tax rate for the quarter	Positive	Business Performance	29
1802		28309	Ador Welding Ltd	For FY20 PAT was at Rs 287 crore up 171% YoY aided by new tax regime benefit 	Positive	Business Performance	30
1803		28309	Ador Welding Ltd	Valuation & Outlook AWL has performed reasonably well in consumables business aided by gross  margin improvement  owing to product mix while PEB business has seen some green shoots and holds key	Negative	Business Performance	31
1804		28309	Ador Welding Ltd	Debt working capital position increased  to 90 days in FY20 will be closely watched amid economic slowdown 	Negative	General	5
1805		28309	Ador Welding Ltd	We maintain our BUY  rating	Positive	Business Performance	32
1806		28309	Ador Welding Ltd	Delay  in PEB execution working capital stress 	Negative	General	6
1807	Negative	28309	Ador Welding Ltd	Ador Welding AWL reported consolidated revenues at Rs 1399 crore down 69% YoY impacted  by disrupted business activities across sectors	Negative	Business Performance	33
1808		28309	Ador Welding Ltd	76 crore down 232% YoY impacted  by higher other operating expenses owing to one-time provisions	Negative	Business Performance	34
1809		28309	Ador Welding Ltd	EBITDA margins fell  160 bps YoY to 76%	Negative	Business Performance	35
1810		28309	Ador Welding Ltd	However gross  margins for Q4FY20 FY20 improved  280 bps 100 bps to ~29% 304% respectively	Negative	Business Performance	36
1811		28309	Ador Welding Ltd	EBITDA margin for FY20 was at 82% with a marginal decline  of 40 bps YoY PAT was at Rs 69 crore down 88% YoY supported  by lower effective  tax rate for the quarter	Positive	Business Performance	37
1812		28309	Ador Welding Ltd	For FY20 PAT was at Rs 287 crore up 171% YoY aided by new tax regime benefit 	Positive	Business Performance	38
1813		28309	Ador Welding Ltd	Valuation & Outlook AWL has performed reasonably well in consumables business aided by gross  margin improvement  owing to product mix while PEB business has seen some green shoots and holds key	Negative	Business Performance	39
1814		28309	Ador Welding Ltd	Debt working capital position increased  to 90 days in FY20 will be closely watched amid economic slowdown 	Negative	General	7
1815		28309	Ador Welding Ltd	We maintain our BUY  rating	Positive	Business Performance	40
1816		28309	Ador Welding Ltd	Delay  in PEB execution working capital stress 	Negative	General	8
1817	Positive	28296	ABB Ltd	Smart  charging infrastructure for Singapore ports automated  guided vehicles	Positive	New Projects	201
1818		28296	ABB Ltd	With electric vehicle EV numbers growing rapidly ABB is investing significantly  in the development of new battery charging technology and its infrastructure	Positive	Market Expansion	111
1819		28296	ABB Ltd	In a first for ABB the companys chargers will serve a fleet of automated  guided vehicles AGVs in commercial operation	Positive	New Projects	202
1820		28296	ABB Ltd	A desire to counteract poor  urban air quality and alleviate global climate change concerns  has led  to booming  EV demand	Negative	Business Risk	79
1821		28296	ABB Ltd	It is not only in the personal transport arena that EVs are making an impact: commercial applications are also seeing the benefits  of EVs	Positive	New Projects	203
1822		28296	ABB Ltd	Apart from their positive  environmental aspects EVs are also very suitable  for automated  applications such as those fulfilled by AGVs	Positive	General	187
1823		28296	ABB Ltd	AGVs have a range of advantages: no driver is needed so personnel can be redeployed to more productive  tasks; performance and costs are predictable; AGVs do not tire and rarely err therefore suiting the 24/7 operational requirement	Positive	General	188
1824		28296	ABB Ltd	Overall safety is improved  as AGVs will operate in a more controlled environment and are designed to interface well  within the automation environment in which they operate	Positive	General	189
1825		28296	ABB Ltd	The installation of this essential  infrastructure is one of the next big tasks for the EV industry and must happen faster  than EV numbers grow	Positive	New Projects	204
1826		28296	ABB Ltd	ABB offers a wide portfolio  from compact  AC wall boxes for home charging through reliable  DC fast-charging such as at road-side stations to innovative  on-demand electric-bus and heavy commercial-vehicle charging systems	Positive	Market Expansion	112
1827		28296	ABB Ltd	Ability  ABBs unified  cross-industry digital offering that extends from device to edge to the cloud   enables fast  global service proactive  maintenance control  system integration and a host of other benefits 	Positive	New Projects	205
1828		28296	ABB Ltd	ABBs knowledge and comprehensive  product portfolio well-position the company to deploy next-generation EV infrastructure	Positive	Market Expansion	113
1829		28296	ABB Ltd	This experience in EV charging infrastructure underpinned the decision by PSA to choose ABB as a partner in the major expansion  of its port facilities	Positive	New Projects	206
1830		28296	ABB Ltd	Tuas Port in Singapore will feature the worlds largest  fully automated  container terminal	Positive	New Projects	207
1831		28296	ABB Ltd	Image 1 - PSA container terminal in Singapore Automation will be the essential  element in realizing a facility of this size complexity and sophistication	Positive	New Projects	208
1832		28296	ABB Ltd	Operations at the terminal are set to start up in earnest  in late 2021 when a fleet of 162 AGVs will begin to come into service progressively	Positive	Market Expansion	114
1833		28296	ABB Ltd	ABB and the Land Systems arm of ST Engineering worked closely together to secure  the contract with PSA to deliver and commission integrated  smart  charging stations for this AGV fleet to be implemented toward the end of 2020	Positive	New Projects	209
1834		28296	ABB Ltd	The contract includes eighteen smart  fast  charging stations with built-in fault  tolerance and self-diagnostic features	Positive	Business Risk	80
1835		28296	ABB Ltd	Each station is constructed into a fully integrated  eHouse on a prefabricated skid with the medium- and low-voltage switchgear transformer and 450 kW high-power chargers with associated control  and monitoring equipment	Positive	New Projects	210
1836		28296	ABB Ltd	The solution demonstrates the benefits  of combining EV charging and all supporting  electrical infrastructure in a complete e-mobility solution image 2	Positive	New Projects	211
1837		28296	ABB Ltd	Image 2 - ABB e-mobility solution for PSA container port ABBs portfolio of heavy commercial electric vehicle chargers feature plug-in connector and automatic  pantograph-up and pantograph-down connection options to provide  charging to as wide a range of bus truck and specialist vehicles as possible image 3	Positive	New Projects	212
1838		28296	ABB Ltd	In the Tuas project as pantograph charging would be impeded by the presence of a container on the vehicle and side-access pantographs are unwieldy  specially designed and customized side-access pin-type connectors from Stäubli are used image 4	Negative	Market Expansion	115
1839		28296	ABB Ltd	The specification for the pin connector was driven by PSA working closely with Stäubli to design the connection solution that best  suited the application	Positive	Market Expansion	116
1840		28296	ABB Ltd	 unusually  there is no connection to cloud  services	Negative	Business Risk	81
1841		28296	ABB Ltd	The PLC communicates with the fleet management system for real-time control  and management of the charging operations	Positive	Business Performance	98
1842		28296	ABB Ltd	Operational and diagnostics data are logged at the Remote Fault  Diagnostics System and can be used for further analysis and data trending 	Negative	Business Risk	82
1843		28296	ABB Ltd	Image 4 - A custom connector is utilized to facilitate  DC fast  charging for the AGVs	Positive	General	190
1844		28296	ABB Ltd	This gives an element of redundancy  as should one cabinet be taken out of service eg for maintenance or because of failure 	Negative	Business Risk	83
1845		28296	ABB Ltd	300 kW of high-power charging will remain in operation; temporarily having less charging capability  is better  than temporarily having none at all	Positive	General	191
1846		28296	ABB Ltd	As stand-alone equipment the chargers have a standard IP54 enclosure rating but when installed in the eHouse protection  from the harsh  sea-side environment is further improved 	Positive	Business Performance	99
1847		28296	ABB Ltd	The containerized implementation simplifies  the whole job: the container is dropped on to site where ST Engineering will connect to the main power and where ABB will perform the commissioning	Positive	New Projects	213
1848		28296	ABB Ltd	Often investments must be made to increase  the capacity of the electrical distribution system but with the right  combination of smart  solutions such as battery storage coupled with an energy management system these costs can be controlled	Positive	Market Expansion	117
1849		28296	ABB Ltd	ABB has over 100 years of experience in electrical distribution and is a leader in pre-engineered and scalable solutions that facilitate  the dynamic  growth  of sustainable  electric mobility	Positive	New Projects	214
1850		28296	ABB Ltd	Further the eHouse solution allows the chargers and the other electrical distribution equipment to be installed within the same assembly to minimize site works and makes installation more efficient 	Positive	General	192
1851		28296	ABB Ltd	The ABB eHouse portfolio provides  a modular  plug-and-play solution for rapid  deployment for e-mobility applications	Positive	New Projects	215
1852		28296	ABB Ltd	Additionally the modular  nature of the design allows PSA to relocate the charging stations to different areas of the terminal port as needed	Positive	New Projects	216
1853		28296	ABB Ltd	Image 5 - SafeRing medium-voltage switchgear Leading the charge The PSA Singapore project brings together two of the biggest  trends disrupting the mobility industry: the rise of automated  guided vehicles and the adoption of EVs	Positive	General	193
1854		28296	ABB Ltd	ABBs technology will enable  fast  charging of the AGVs which is vital  for efficient  container movement and for increasing the capacity of the port	Positive	New Projects	217
1855		28296	ABB Ltd	The pioneering venture from PSA and ST Engineering marks the first time ABBs chargers will be used to power a fleet of automated  vehicles for commercial operation	Positive	New Projects	218
1856		28296	ABB Ltd	This latest project will further accelerate  Singapores transition to a future mobility ecosystem that is safer cleaner  and more accessible 	Positive	Market Expansion	118
1857		28296	ABB Ltd	In a wider context the fast-growing EV market is driving innovative  and nimble thinking	Positive	New Projects	219
1858		28296	ABB Ltd	ABB plays a leading role in the development of sustainable  mobility with new digital technologies and has participated in many projects around the world	Positive	New Projects	220
1859		28296	ABB Ltd	Due to their cost-effectiveness and attractive  environmental credentials electric AGVs will feature in an ever-growing number of commercial operations	Positive	Market Expansion	119
1860		28296	ABB Ltd	The Singapore project provides  an ideal  template for these applications	Positive	New Projects	221
1861		28296	ABB Ltd	It is not only in the personal transport arena that EVs are making an impact: commercial applications are also seeing the benefits  of EVs	Positive	New Projects	222
1862		28296	ABB Ltd	Apart from their positive  environmental aspects EVs are also very suitable  for automated  applications such as those fulfilled by AGVs	Positive	General	194
1863		28296	ABB Ltd	AGVs have a range of advantages: no driver is needed so personnel can be redeployed to more productive  tasks; performance and costs are predictable; AGVs do not tire and rarely err therefore suiting the 24/7 operational requirement	Positive	General	195
1864		28296	ABB Ltd	Overall safety is improved  as AGVs will operate in a more controlled environment and are designed to interface well  within the automation environment in which they operate	Positive	General	196
1865		28296	ABB Ltd	The installation of this essential  infrastructure is one of the next big tasks for the EV industry and must happen faster  than EV numbers grow	Positive	New Projects	223
1866		28296	ABB Ltd	ABB offers a wide portfolio  from compact  AC wall boxes for home charging through reliable  DC fast-charging such as at road-side stations to innovative  on-demand electric-bus and heavy commercial-vehicle charging systems	Positive	Market Expansion	120
1867		28296	ABB Ltd	Ability  ABBs unified  cross-industry digital offering that extends from device to edge to the cloud   enables fast  global service proactive  maintenance control  system integration and a host of other benefits 	Positive	New Projects	224
1868		28296	ABB Ltd	ABBs knowledge and comprehensive  product portfolio well-position the company to deploy next-generation EV infrastructure	Positive	Market Expansion	121
1869		28296	ABB Ltd	This experience in EV charging infrastructure underpinned the decision by PSA to choose ABB as a partner in the major expansion  of its port facilities	Positive	New Projects	225
1870		28296	ABB Ltd	Tuas Port in Singapore will feature the worlds largest  fully automated  container terminal	Positive	New Projects	226
1871		28296	ABB Ltd	Image 1 - PSA container terminal in Singapore Automation will be the essential  element in realizing a facility of this size complexity and sophistication	Positive	New Projects	227
1872		28296	ABB Ltd	Operations at the terminal are set to start up in earnest  in late 2021 when a fleet of 162 AGVs will begin to come into service progressively	Positive	Market Expansion	122
1873		28296	ABB Ltd	ABB and the Land Systems arm of ST Engineering worked closely together to secure  the contract with PSA to deliver and commission integrated  smart  charging stations for this AGV fleet to be implemented toward the end of 2020	Positive	New Projects	228
1874		28296	ABB Ltd	The contract includes eighteen smart  fast  charging stations with built-in fault  tolerance and self-diagnostic features	Positive	Business Risk	84
1875		28296	ABB Ltd	Each station is constructed into a fully integrated  eHouse on a prefabricated skid with the medium- and low-voltage switchgear transformer and 450 kW high-power chargers with associated control  and monitoring equipment	Positive	New Projects	229
1876		28296	ABB Ltd	The solution demonstrates the benefits  of combining EV charging and all supporting  electrical infrastructure in a complete e-mobility solution image 2	Positive	New Projects	230
1877		28296	ABB Ltd	Image 2 - ABB e-mobility solution for PSA container port ABBs portfolio of heavy commercial electric vehicle chargers feature plug-in connector and automatic  pantograph-up and pantograph-down connection options to provide  charging to as wide a range of bus truck and specialist vehicles as possible image 3	Positive	New Projects	231
1878		28296	ABB Ltd	In the Tuas project as pantograph charging would be impeded by the presence of a container on the vehicle and side-access pantographs are unwieldy  specially designed and customized side-access pin-type connectors from Stäubli are used image 4	Negative	Market Expansion	123
1879		28296	ABB Ltd	The specification for the pin connector was driven by PSA working closely with Stäubli to design the connection solution that best  suited the application	Positive	Market Expansion	124
1880		28296	ABB Ltd	 unusually  there is no connection to cloud  services	Negative	Business Risk	85
1881		28296	ABB Ltd	The PLC communicates with the fleet management system for real-time control  and management of the charging operations	Positive	Business Performance	100
1882		28296	ABB Ltd	Operational and diagnostics data are logged at the Remote Fault  Diagnostics System and can be used for further analysis and data trending 	Negative	Business Risk	86
1883		28296	ABB Ltd	Image 4 - A custom connector is utilized to facilitate  DC fast  charging for the AGVs	Positive	General	197
1884		28296	ABB Ltd	This gives an element of redundancy  as should one cabinet be taken out of service eg for maintenance or because of failure 	Negative	Business Risk	87
1885		28296	ABB Ltd	300 kW of high-power charging will remain in operation; temporarily having less charging capability  is better  than temporarily having none at all	Positive	General	198
1886		28296	ABB Ltd	As stand-alone equipment the chargers have a standard IP54 enclosure rating but when installed in the eHouse protection  from the harsh  sea-side environment is further improved 	Positive	Business Performance	101
1887		28296	ABB Ltd	The containerized implementation simplifies  the whole job: the container is dropped on to site where ST Engineering will connect to the main power and where ABB will perform the commissioning	Positive	New Projects	232
1888		28296	ABB Ltd	Often investments must be made to increase  the capacity of the electrical distribution system but with the right  combination of smart  solutions such as battery storage coupled with an energy management system these costs can be controlled	Positive	Market Expansion	125
1889		28296	ABB Ltd	ABB has over 100 years of experience in electrical distribution and is a leader in pre-engineered and scalable solutions that facilitate  the dynamic  growth  of sustainable  electric mobility	Positive	New Projects	233
1890		28296	ABB Ltd	Further the eHouse solution allows the chargers and the other electrical distribution equipment to be installed within the same assembly to minimize site works and makes installation more efficient 	Positive	General	199
1891		28296	ABB Ltd	The ABB eHouse portfolio provides  a modular  plug-and-play solution for rapid  deployment for e-mobility applications	Positive	New Projects	234
1892		28296	ABB Ltd	Additionally the modular  nature of the design allows PSA to relocate the charging stations to different areas of the terminal port as needed	Positive	New Projects	235
1893		28296	ABB Ltd	Image 5 - SafeRing medium-voltage switchgear Leading the charge The PSA Singapore project brings together two of the biggest  trends disrupting the mobility industry: the rise of automated  guided vehicles and the adoption of EVs	Positive	General	200
1894		28296	ABB Ltd	ABBs technology will enable  fast  charging of the AGVs which is vital  for efficient  container movement and for increasing the capacity of the port	Positive	New Projects	236
1895		28296	ABB Ltd	The pioneering venture from PSA and ST Engineering marks the first time ABBs chargers will be used to power a fleet of automated  vehicles for commercial operation	Positive	New Projects	237
1896		28296	ABB Ltd	This latest project will further accelerate  Singapores transition to a future mobility ecosystem that is safer cleaner  and more accessible 	Positive	Market Expansion	126
1897		28296	ABB Ltd	In a wider context the fast-growing EV market is driving innovative  and nimble thinking	Positive	New Projects	238
1898		28296	ABB Ltd	ABB plays a leading role in the development of sustainable  mobility with new digital technologies and has participated in many projects around the world	Positive	New Projects	239
1899		28296	ABB Ltd	Due to their cost-effectiveness and attractive  environmental credentials electric AGVs will feature in an ever-growing number of commercial operations	Positive	Market Expansion	127
1900		28296	ABB Ltd	The Singapore project provides  an ideal  template for these applications	Positive	New Projects	240
1901	Positive	28276	ABB Ltd	Linxon is supporting  Petrofac to deliver the turnkey onshore substation for the 1075MW Seagreen offshore wind project off Scotland	Positive	New Projects	241
1902		28276	ABB Ltd	Linxon has already commenced  early project works working closely with Petrofac and its supply chain partners	Positive	New Projects	242
1903		28276	ABB Ltd	It is due to commence  site and construction works in the coming weeks	Positive	Business Performance	102
1904		28276	ABB Ltd	Linxon chief executive Frederic Trefois said: We are honoured to be collaborating with Petrofac for this large-scale renewable energy project		General	201
1905		28276	ABB Ltd	Our collaboration bringing together collective expertise  and experience from similar onshore and offshore renewables projects is impressive  and creates value for our customers from the early stage of the project development until the end of the commissioning of the project	Positive	New Projects	243
1906		28276	ABB Ltd	Linxon is fully committed to contribute  with its world class execution skills to deliver a safe  quality focused and on-time project	Positive	General	202
1907		28276	ABB Ltd	When complete it will be Scotlands largest  offshore wind farm	Positive	Market Expansion	128
1908	Positive	28278	ABB Ltd	ABB Power Grids India has signed a Memorandum of Understanding MoU with the National Institute of Technology Warangal NITW Telangana for cooperation  to drive smart  electric grid technology education skills development and research activities	Positive	New Projects	244
1909		28278	ABB Ltd	Indias electric grid is transforming with the penetration of renewables and need for reliable  power under the One Nation 	Positive	Market Expansion	129
1910		28278	ABB Ltd	The government is striving  to provide  24x7 power for all the households while honoring  its climate commitments and Sustainable  Development Goals	Positive	Business Performance	103
1911		28278	ABB Ltd	A smart  grid can help  balance both facilitating a safe  cost-effective clean and reliable  power network	Positive	General	203
1912	Positive	28279	ABB Ltd	To drive smart  electric grid technology education with unique  MTech programABB	Positive	General	204
1913		28279	ABB Ltd	Power Grids India has signed a Memorandum of Understanding MoU with the National Institute of Technology Warangal NITW Telangana for cooperation  to drive smart  electric grid technology education skills development and research activities	Positive	New Projects	245
1914		28279	ABB Ltd	For a nation-wide smart  electric grid Indias education system and future talent  play a vital  role	Positive	General	205
1915		28279	ABB Ltd	In recognizing this need ABB Power Grids India has partnered with the Department of Electrical Engineering of NITW to develop a unique  Master  of Technology MTech program in Smart  Electric Grid SEG from the current academic year	Positive	General	206
1916	Positive	28280	ABB Ltd	ABB through leading Chinese electric vehicle charging solution provider Shanghai Chargedot New Energy Technology Co Ltd has just won  a major order from GAC Toyota Motor in China worth  approximately USD 5 million	Positive	New Projects	246
1917		28280	ABB Ltd	China already boasts the largest  fleet of electric vehicles worldwide at more than 2 million with predictions that EVs will account for 70% of all vehicle sales in China by 20301	Positive	Business Performance	104
1918	Neutral	28281	ABB Ltd	ABB Power Products and Systems India Ltd informed  the exchanges Wednesday that while the company has made every effort to swiftly adapt to the new norm the closure of our factory and sites - including that of our customers and suppliers  will likely impact  the performance in the April to June 2020 quarter	Negative	Business Performance	105
1919		28281	ABB Ltd	The company has a strong  order backlog at the close of Q1CY2020 that provides  some revenue support for the coming quarters and until date has faced no order cancellation on account of Covid-19	Positive	Business Performance	106
1920		28281	ABB Ltd	The company has sufficient  credit lines in place to meet the short-term working capital requirements as and when the need arises company said	Positive	Business Risk	88
1921	Positive	28283	ABB Ltd	Linxon is supporting  Petrofac to deliver the turnkey onshore substation for the 1075MW Seagreen offshore wind project off Scotland	Positive	New Projects	247
1922		28283	ABB Ltd	Linxon has already commenced  early project works working closely with Petrofac and its supply chain partners	Positive	New Projects	248
1923		28283	ABB Ltd	It is due to commence  site and construction works in the coming weeks	Positive	Business Performance	107
1924		28283	ABB Ltd	Linxon chief executive Frederic Trefois said: We are honoured to be collaborating with Petrofac for this large-scale renewable energy project		General	207
1925		28283	ABB Ltd	Our collaboration bringing together collective expertise  and experience from similar onshore and offshore renewables projects is impressive  and creates value for our customers from the early stage of the project development until the end of the commissioning of the project	Positive	New Projects	249
1926		28283	ABB Ltd	Linxon is fully committed to contribute  with its world class execution skills to deliver a safe  quality focused and on-time project	Positive	General	208
1927		28283	ABB Ltd	When complete it will be Scotlands largest  offshore wind farm	Positive	Market Expansion	130
1928	Positive	28277	ABB Ltd	: ABB Power Grids India has signed a memorandum of understanding with the National Institute of Technology Warangal NITW in Telangana for cooperation  to drive smart  electric grid technology education skills development and research activities	Positive	New Projects	250
1929		28277	ABB Ltd	For a nation-wide smart  electric grid Indias education system and future talent  play a vital  role	Positive	General	209
1930		28277	ABB Ltd	In recognising this need ABB Power Grids India has partnered with the Department of Electrical Engineering of NITW to develop a unique  Master  of Technology M Tech programme in smart  electric grid from the current academic year	Positive	General	210
1931		28277	ABB Ltd	This is an important partnership  that will strengthen  collaboration between academia and industry said N Venu Managing Director of ABB Power Grids India	Positive	General	211
1932		28277	ABB Ltd	Building the right  talent  pool is crucial  for building a sustainable  grid of the future	Positive	New Projects	251
1933		28277	ABB Ltd	This is part of our continued focus on education and skill development -- aligned with initiatives such as Skill  India -- and will help  advance efforts in bringing power to all while cutting carbon emissions he added	Positive	General	212
1934		28277	ABB Ltd	In addition to crafting the course content for programme ABB Power Grids India team will support the institute in setting up a laboratory for smart  electric grid technology and provide  internship opportunities for the M Tech students and Ph D scholars	Positive	General	213
1935		28277	ABB Ltd	Indias electric grid is transforming with the penetration of renewables and need for reliable  power under the One Nation-One Grid-One Frequency roadmap	Positive	Business Risk	89
1936		28277	ABB Ltd	The government is striving  to provide  24x7 power for all the households while honouring its climate commitments and Sustainable  Development Goals	Positive	Business Performance	108
1937		28277	ABB Ltd	A smart  grid can help  balance both facilitating a safe  cost-effective clean and reliable  power network	Positive	General	214
1938	Positive	28263	Acer Inc	Acer is one of the most committed  manufacturers when it comes to Chromebooks and routinely releases new and iterated products	Positive	Business Performance	84
1939		28263	Acer Inc	Its Chromebook Spin series is among the better  known as it combines a 2-in-1 form factor that lets you flip the screen 360 degrees making it easy to transform  a Chromebook into an entertainment device	Positive	Business Performance	85
1940		28263	Acer Inc	Being part of Intels Project Athena it packs a variety  of 10th-gen Intel Core CPUs ranging from the Pentium Gold 6450U to the i7-10610U Depending on which version you choose you have a broad  selection of RAM options to look at: 4 8 or 16GB	Positive	General	107
1941		28263	Acer Inc	The 3:2 aspect ratio should make it perfect  for web content though we dont know if it will get bright  enough for outdoor usage just yet	Positive	Business Performance	86
1942		28263	Acer Inc	you guessed it  features a 360-degree hinge giving it a comfortable  tablet form factor when the keyboard is not needed	Positive	Business Performance	87
1943		28263	Acer Inc	You get 32 or 64GB of eMMC storage and can expect up to 15 hours of battery life thanks to the ARM architectures efficiency 	Positive	Business Performance	88
1944		28263	Acer Inc	The Chromebook will be released in July starting at $25999 which makes it a lot more competitive  than its predecessor from the get-go	Positive	Business Performance	89
1945	Positive	28265	Acer Inc	Notebook fans  will get a chance to check out new Helios Triton and Nitro PCs	Positive	New Projects	109
1946		28265	Acer Inc	Acer Sitting at the top  of the pack with Acers gaming laptops is the Predator Helios 700	Positive	Business Risk	35
1947		28265	Acer Inc	Like  all of the other refreshes Acer has embraced Intels 10th Gen H-Series Core processors and NVIDIA RTX SUPER  graphics	Positive	Business Performance	90
1948		28265	Acer Inc	Acer claims PowerGem has 383 times more vertical heat conductivity than copper which should help  move heat more efficiently 	Positive	Business Performance	91
1949		28265	Acer Inc	Every model also includes three copper heat pipes a vapor chamber and AeroBlade 3D fans 	Positive	New Projects	110
1950		28265	Acer Inc	Best  online learning tools for kids: ABCmouse Reading IQ & more You can also expect to get per-key RGB lighting on the keyboard and swappable WASD keys with adjustable  lighting and actuation points	Positive	Business Performance	92
1951		28265	Acer Inc	Up to 16GB DDR4-2933MHz Upgradeable  to 64GB Graphics NVIDIA	Positive	Market Expansion	33
1952		28265	Acer Inc	Super  Storage 512GB 1TB 2TB NVMe RAID 0	Positive	Market Expansion	34
1953		28265	Acer Inc	7200 RPM HDD 2TB 5400 RPM HDD Display 173 inches 1920x1080 FHD G-SYNC 144Hz refresh  rate 300 nits Keyboard Per-key RGB Ports	Positive	Business Performance	93
1954		28265	Acer Inc	X Ultra  Connectivity Killer  Doubleshot	Negative	General	108
1955		28265	Acer Inc	6 AX1650i Killer  Ethernet E3100G Dimensions 169 x 118 x 164 inches 430mm x 299mm x 417mm	Negative	General	109
1956		28265	Acer Inc	Acer The Predator Helios 300 sits below the 700 aiming to give you good  bang for your buck	Positive	Business Risk	36
1957		28265	Acer Inc	Theres also a big focus on cooling with Acers AeroBlade 3D fans  and CoolBoost which lets you manually adjust fans  to bring cooling to critical  areas during intense  gaming sessions	Negative	Business Risk	37
1958		28265	Acer Inc	Up to 16GB DDR4-2933MHz Upgradeable  to 32GB Graphics NVIDIA	Positive	Market Expansion	35
1959		28265	Acer Inc	FHD 120Hz 144Hz 240Hz refresh  rate 3ms response time	Positive	Business Performance	94
1960		28265	Acer Inc	Ultra  Connectivity Killer  Wi-Fi	Negative	General	110
1961		28265	Acer Inc	6 AX1650i Killer  Ethernet E2600 Dimensions 143 x 10 x 09 inches 3634mm x 255mm x 229mm	Negative	General	111
1962		28265	Acer Inc	Like  the Helios 300 you can also snag  NVIDIA GeForce RTX 2070 Max-Q graphics and a 240Hz display	Negative	General	112
1963		28265	Acer Inc	Acer also touts  its display prowess  covering 100 percent of the sRGB color space	Negative	Business Performance	95
1964		28265	Acer Inc	That should make it pretty  good  for content creation in addition to gaming	Positive	General	113
1965		28265	Acer Inc	Up to 16GB DDR4 Upgradeable  to 32GB Graphics NVIDIA	Positive	Market Expansion	36
1966		28265	Acer Inc	FHD IPS 240Hz refresh  rate 3ms response time 300 nits 100% sRGB Ports USB-C HDMI Mini DisplayPort	Positive	Business Performance	96
1967		28265	Acer Inc	Ultra  Connectivity Killer  Wi-Fi	Negative	General	114
1968		28265	Acer Inc	At the most affordable  end of the gaming laptop line is the Nitro 7	Positive	Business Performance	97
1969		28265	Acer Inc	With robust  cooling Acers only big compromises here are in the screen which can only hit up to 144Hz	Positive	Business Risk	38
1970		28265	Acer Inc	Thats still pretty  healthy  for a gaming laptop but it falls  below the rest of Acers gaming notebook lineup	Positive	Business Performance	98
1971		28265	Acer Inc	Up to 16GB DDR4-2933MHz Upgradeable  to 32GB Graphics NVIDIA	Positive	Market Expansion	37
1972		28265	Acer Inc	SSD Display 156 inches 1920x1080 FHD IPS 144Hz refresh  rate 3ms response time 300 nits Ports USB-C HDMI	Positive	Business Performance	99
1973		28265	Acer Inc	X Ultra  Connectivity Intel Wi-Fi	Positive	New Projects	111
1974		28265	Acer Inc	6 AX201 Killer  Ethernet E2600 Battery	Negative	General	115
1975		28265	Acer Inc	Acer The Predator Orion 9000 desktop is a gaming monster  Acer says	Negative	Business Risk	39
1976		28265	Acer Inc	Acer says you can also expect up to 16 percent more airflow and 55 percent increased  static  pressure from the Predator 9000s three 47-inch FrostBlade fans 	Positive	Business Performance	100
1977		28265	Acer Inc	Up to 32GB DDR4-2933MHz Upgradeable  to 128GB Graphics NVIDIA	Positive	Market Expansion	38
1978		28265	Acer Inc	Super  Storage Up to three	Positive	Business Performance	101
1979		28265	Acer Inc	6 Bluetooth 51 Killer  E3100G Ethernet Dimensions 89 W x 257 D x 243 H inches 225mm x 6517mm x 6175mm Availability October EMEA	Negative	General	116
1980		28265	Acer Inc	Here things ratchet down to Intels 10th Gen Core i7 processor NVIDIA RTX 2060 SUPER  graphics and up to 64GB of RAM	Positive	New Projects	112
1981	Negative	28266	Acer Inc	Thats a bit cheaper  than last years ConceptD 900 which is a $23000 monster  for very high-end performance	Negative	New Projects	113
1982		28266	Acer Inc	The ConceptD 100 is a small budget-friendly desktop PC but its specs are geared towards those who need to prioritize photo and video editing no loud  fans  and leaving gaming for the console	Negative	Business Performance	102
1983		28266	Acer Inc	 users can upgrade the 16GB of DDR4 RAM to 32GB making it ideal  for Adobe Photoshop and similar apps	Positive	Business Performance	103
1984		28266	Acer Inc	Best  online learning tools for kids: ABCmouse Reading IQ & more Although it uses slower  spinning hard-disk drivers 7200 RPM there is an additional PCIe SSD for loading your most quickly used applications while the slower  one to two terabyte drive is made for media storage	Negative	Business Performance	104
1985		28266	Acer Inc	Up to 16GB DDR4-2666MHz Upgradeable  to 32	Positive	Business Performance	105
1986	Positive	28269	Acer Inc	Swift  5 appears to be the first laptop containing Intels	Positive	General	117
1987		28269	Acer Inc	Acer didnt formally identify the Swift  3s microprocessor as Tiger Lake though referring to it as being powered by the next-gen Intel Core processors with powerful  integrated  graphics based on Intels new Xe architecture is a tipoffIntel announced Tiger Lake last year in conjunction with the Xe graphics technology	Positive	General	118
1988		28269	Acer Inc	Acer announced the new Swift  5 at its next@acer event Tuesday morning which was livestreamed due to COVID-19 pandemic travel restrictions	Positive	General	119
1989		28269	Acer Inc	Acer said its new Swift  5 SF514-5 should weigh less than 22 pounds	Positive	Business Performance	106
1990		28269	Acer Inc	Though the performance of the early-2020 Swift  5 suffered  a bit well have to see what the combination of Tiger Lake and an optional Nvidia next-gen GeForce MX350 GPU has in store	Negative	General	120
1991		28269	Acer Inc	Acer Swift  5 specs and features	Positive	General	121
1992		28269	Acer Inc	This time is different: The latest Acer Swift  5 includes a new hinge that slightly elevates and angles the keyboard providing a more ergonomic typing experience and better  thermal performance	Positive	Business Performance	107
1993		28269	Acer Inc	Acer says buyers will also have the option to specify an antimicrobial coating on all exposed surfaces save for the screen helping  to reassure  users concerned  about the coronavirus or other germs	Positive	Business Risk	40
1994		28269	Acer Inc	Acer A side profile of the new Acer Swift  5 shows how the keyboard is slightly elevated  when the lid is open	Positive	Business Performance	108
1995		28269	Acer Inc	Acer doesnt specify what resolution the display will include though wed suspect  1080p based upon previous models of the Swift  5	Negative	Business Risk	41
1996		28269	Acer Inc	The screen is rated for 300 nits just above what we consider adequate  for everyday use with a 90 percent screen-to-body ratio and a 72% NTSC coverage	Positive	Business Performance	109
1997		28269	Acer Inc	Inside Acer has included what we suspect  to be the Tiger Lake processor and the GeForce MX350 though Acers	Negative	Business Risk	42
1998		28269	Acer Inc	Three thermal modes silent  normal and performance will be supported 	Positive	New Projects	114
1999		28269	Acer Inc	Mist  Green Safari Gold  Mist  Green Safari Gold  Price: $999	Negative	Business Performance	110
2000	Positive	28270	Acer Inc	The Chromebook 713 and Chromebook 311 tackle widely divergent  use-cases and have equally divergent  price points	Negative	Business Performance	111
2001		28270	Acer Inc	Where the 713 with Project Athena cred targets business users the 311 is meant more for home or educational  use	Positive	Business Performance	112
2002		28270	Acer Inc	the skinny  on these two Chromebooks	Negative	Business Performance	113
2003		28270	Acer Inc	The screen supports touch input and is protected by Gorilla Glass for scratch resistance 	Positive	Business Performance	114
2004		28270	Acer Inc	The aluminum chassis is tough  as nails	Positive	Business Performance	115
2005		28270	Acer Inc	It meets MIL-STD-810G which means it can handle abuse  such as drops banks knocks and more	Negative	General	122
2006		28270	Acer Inc	It has a backlit keyboard Gorilla Glass trackpad and stereo speakers have been integrated  underneath the deck	Positive	Business Performance	116
2007		28270	Acer Inc	The enterprise edition features fortified software and top  specs	Positive	General	123
2008		28270	Acer Inc	The best  Acer Chromebooks Dialing it down to 11	Positive	Business Performance	117
2009		28270	Acer Inc	It has an improved  keyboard with concave keys and lots of travel	Positive	New Projects	115
2010		28270	Acer Inc	See also: The best  Chromebooks Acer had more than Chromebooks on deck today	Positive	Business Performance	118
2011		28270	Acer Inc	It boasts an overclocked 10th Gen Intel Core i9 or i7 processor with Nvidia graphics and advanced  thermal management	Positive	New Projects	116
2012		28270	Acer Inc	Last Acer updated the Nitro 7 with a sleek  metal chassis	Positive	Business Performance	119
2013		28270	Acer Inc	This 55-pound beats has the same 10th Gen Intel Core H processors and Nvidia graphics on the Triton 156-inch screen 144Hz refresh  rate with 3ms response time and blur-free gameplay	Positive	General	124
2014		28270	Acer Inc	Next: The best  Chromebooks under $300	Positive	Business Performance	120
2015	Positive	28267	Acer Inc	The biggest  change to the latest Nitro 7 is the top  GPU	Positive	Business Performance	121
2016		28267	Acer Inc	Thats a very decent GPU and great  for gaming but it lacks  a key feature: hardware ray tracing support	Negative	Business Risk	43
2017		28267	Acer Inc	Those numbers dont really mean much though as the dynamic  boosting will see far higher clock speeds depending on the workload power and cooling of the laptop	Positive	Business Performance	122
2018		28267	Acer Inc	While we cant comment on performance of this pre-production Nitro 7 we figure itll be very competitive  with some of the original GeForce RTX 2060 laptops weve seen	Positive	New Projects	117
2019		28267	Acer Inc	Also new is is a move from a 6-core 9th-gen Core i7-9750H to 6-core 10th-gen Core i7-10750H Thats less of a mover for most gaming laptops but most of the 10th-gen CPUs weve seen do offer decent bumps  in performance	Negative	General	125
2020		28267	Acer Inc	The Nitro 7s right  side features USB-C USB-A and HDMI	Positive	New Projects	118
2021		28267	Acer Inc	While the top  Nitro 7 we could find previously featured a 512GB SSD with a 1TB hard  drive this Nitro 7 comes with two Western Digital SN530 M2 SSDs in RAID 0	Negative	New Projects	119
2022		28267	Acer Inc	So good  for storage but probably meh for battery life	Positive	New Projects	120
2023		28267	Acer Inc	Our unit also came outfitted with 32GB of RAM which is more of a premium  feature	Positive	Business Performance	123
2024		28267	Acer Inc	If its similar to the previous model both modules should be easy  to get to once youve taken off the bottom	Positive	Business Performance	124
2025		28267	Acer Inc	Pricing of the newest Nitro 7 starts at $1000 but we suspect  that wont be with the 2TB of storage and 32GB of RAM	Negative	New Projects	121
2026	Positive	28268	Acer Inc	Acer What you need to know Acer unveiled its latest refresh  to the Swift  5 notebook	Positive	Business Performance	125
2027		28268	Acer Inc	The notebook brings a fresh  design slim bezels and Intels latest Core i CPUs with a new integrated  graphics architecture	Positive	New Projects	122
2028		28268	Acer Inc	The refreshed Acer Swift  5 is expected to launch in October starting at $1000	Positive	Business Performance	126
2029		28268	Acer Inc	Acer took the wraps off of a load of new PCs today and not least among them is the new Swift  5	Positive	Business Performance	127
2030		28268	Acer Inc	Expected to launch in October startin at $1000 the new Swift  5 carries forward  the elegant  look of its predecessor but with new hardware inside	Positive	Business Performance	128
2031		28268	Acer Inc	Theres also a new color to look forward  to: mist  green with gold accents	Negative	Market Expansion	39
2032		28268	Acer Inc	Acer Swift  5 features and specs Source:	Positive	General	126
2033		28268	Acer Inc	Acer The new Acer Swift  5 runs on Windows 10 home powered by up to 16GB of RAM and Intels Core i-series processors	Positive	Business Performance	129
2034		28268	Acer Inc	Acer is mum at the moment on exactly which processors the Swift  5 will run but it says the integrated  graphics are based on Intels new Xe architecture	Positive	Business Performance	130
2035		28268	Acer Inc	Alternatively youll be able  to get NVIDIA GeForce MX350 discrete graphics if you prefer 	Positive	General	127
2036		28268	Acer Inc	Acer has backed that up with a thin  and light design measuring a little over half-an-inch thick	Negative	Business Risk	44
2037		28268	Acer Inc	Thats packed in an all-metal chassis that looks rather slick 	Positive	New Projects	123
2038		28268	Acer Inc	The 14-inch screen is flanked by slim bezels and theres a layer of antimicrobial Corning Gorilla Glass to help  cut down on screen crud	Positive	Business Risk	45
2039		28268	Acer Inc	Best  online learning tools for kids: ABCmouse Reading IQ & more	Positive	Business Performance	131
2040	Positive	28255	Acer Inc	This 14-inch thin-and-light notebook does not have standout  features or a unique  design	Positive	New Projects	124
2041		28255	Acer Inc	What it does offer is excellent  value thanks to a judicious  selection of practical  features	Positive	New Projects	125
2042		28255	Acer Inc	Wi-Fi 6 USB-C charging and a fingerprint sensor and a surprisingly powerful  AMD processor that blows away its more expensive  Intel competitor	Negative	New Projects	126
2043		28255	Acer Inc	The Swift  3 uses AMDs latest Ryzen 5 4500U chip which is a mid-tier six-core processor that slots in between the Ryzen 3 and Ryzen 7 chips	Positive	Business Performance	132
2044		28255	Acer Inc	But to my surprise the Ryzen 5 actually beats the latest Intel Core i7-1065G7 in the PCMark 10 benchmark  which tests a variety  of common computing workloads	Positive	Business Risk	46
2045		28255	Acer Inc	The Swift  3 scored 4776 in PCMark 10 compared to 4556 for the Lenovo IdeaPad Slim 5i which is powered by Intels	Positive	Business Performance	133
2046		28255	Acer Inc	The Swift  3 performed significantly better  than the Lenovo notebook in PCMark 10s Digital Content Creation segment which involves photo and video editing	Positive	Business Performance	134
2047		28255	Acer Inc	The Radeon graphics in the Swift  3 are also impressive  for an integrated  graphics solution	Positive	General	128
2048		28255	Acer Inc	This means the Swift  3 will run most video games as long as you choose the lower graphics settings or switch to a lower resolution	Positive	General	129
2049		28255	Acer Inc	The Swift  3 has a similar unassuming silver metallic chassis as the 135-inch Swift  3 that I tested earlier this year	Positive	General	130
2050		28255	Acer Inc	It weighs a handy  12kg and the build quality is decent	Positive	New Projects	127
2051		28255	Acer Inc	 Powerful  processor 	Positive	General	131
2052		28255	Acer Inc	Excellent  value for money	Positive	New Projects	128
2053		28255	Acer Inc	 Runs cool  and quiet AGAINST 	Positive	General	132
2054		28255	Acer Inc	Weak  speakers  Screen could be brighter 	Negative	General	133
2055		28255	Acer Inc	This is convenient  as I can use a single USB-C charger for both the laptop and my smartphone instead of having two different ones	Positive	New Projects	129
2056		28255	Acer Inc	Unlike the 135-inch Swift  3 which has a 3:2 aspect ratio the 14-inch variant has a conventional 16:9 aspect ratio that is more suited for watching videos	Positive	General	134
2057		28255	Acer Inc	Unfortunately the movie-viewing experience is hampered  by the laptops weak  speakers which sound tinny even at maximum volume	Negative	General	135
2058		28255	Acer Inc	I recommend  using headphones instead	Positive	General	136
2059		28255	Acer Inc	The matt display too is not as bright  as I would have liked	Negative	Business Performance	135
2060		28255	Acer Inc	You probably have to increase  the brightness to a level close to the maximum in a well-lit room	Positive	Business Performance	136
2061		28255	Acer Inc	Viewing angles are good  though the colours are not vibrant  enough	Negative	Business Performance	137
2062		28255	Acer Inc	The Swift  3 has good  battery life clocking 6 hours and 45 minutes in The Straits Times video-loop battery test with its display set to the maximum brightness	Positive	General	137
2063		28255	Acer Inc	At $1198 the Swift  3 offers incredible  value for its price	Positive	New Projects	130
2064		28255	Acer Inc	The attractive  price tag also makes its few flaws seem less insurmountable 	Positive	Business Performance	138
2065		28255	Acer Inc	this is currently the budget laptop to beat 	Negative	Business Performance	139
2066	Positive	28256	Acer Inc	Swift  5 laptop is getting a major upgrade when it gets refreshed this fall	Positive	Business Performance	140
2067		28256	Acer Inc	Acer stated that the Swift  5 will be arriving with next-generation Intel processors alongside Intel	Positive	Business Risk	47
2068		28256	Acer Inc	Xe integrated  graphics and optional Nvidia MX350 discrete GPU	Positive	Business Performance	141
2069		28256	Acer Inc	Xe graphics which will succeed  the companys current Gen 11 integrated  graphics architecture is widely believed to launch as part of its 11th Gen processor lineup and the underlying architecture is what Intel will be using on its own line of discrete graphics cards	Positive	Business Performance	142
2070		28256	Acer Inc	Xe graphics is expected to provide  a 100% uplift  in graphics performance over Gen 11 graphics and this could help  Intel better  compete with AMDs Ryzen 4000 mobile processors which are gaining  popularity	Positive	Business Performance	143
2071		28256	Acer Inc	Of note Acer also has a Swift  3 laptop with AMDs Ryzen 4000 onboard so it will be interesting  to see how the two models perform	Positive	New Projects	131
2072		28256	Acer Inc	The Swift  5 can be configured with up to 1 TB solid-state drive and 16GB LPDDRAX memory	Positive	General	138
2073		28256	Acer Inc	Acer is also bringing cooling controls to the laptop so you can now tune the fans  to silent  normal or performance modes based on your task or environment	Positive	General	139
2074		28256	Acer Inc	Like  the model that it will replace the new Swift  5 will come with a 14-inch FHD display but Acer is making this laptop even more compact  by reducing the bezels surrounding the screen	Positive	Business Risk	48
2075		28256	Acer Inc	Another potentially useful  feature  and a very timely  one given the state of the current global health pandemic  is that this laptop comes with an antimicrobial coating on the Corning Gorilla Glass screen	Positive	Market Expansion	40
2076		28256	Acer Inc	Voice tracking adaptive beamforming voice recognition enhancements and clearer  conference call optimizations help  to complement  the built-in far-field microphones	Positive	General	140
2077		28256	Acer Inc	True Harmony audio tuning along with DTS Audio tuning will help  with content consumption	Positive	General	141
2078	Positive	28258	Acer Inc	Amazon Studios fashioned in late 2010 to ship content material to be distributed each by way of theaters in addition to its new Prime  Video streaming service	Positive	New Projects	132
2079		28258	Acer Inc	It started with Spike Lees CHI-RAQ in 2015 which was adopted up by others together with Academy Award-winning movies like Manchester by the Sea		Business Risk	49
2080		28258	Acer Inc	Since then Amazon Prime  has persistently produced some fairly nice  movies throughout all sorts of genres	Positive	General	142
2081		28258	Acer Inc	These are a number of the greatest 	Positive	General	143
2082		28258	Acer Inc	Amazon It is smart  to start with the very first movie ever to be acquired  by Amazon Studios which additionally helped solidify its place as a success  film studio	Positive	New Projects	133
2083		28258	Acer Inc	Based mostly on the Classical Greek comedy Lysistrata by Aristophanes the place ladies withheld intercourse in a determined try to finish the Peloponnesian Conflict 	Negative	Business Risk	50
2084		28258	Acer Inc	Runtime: 127 minutes Watch on Amazon Prime  Most	Positive	New Projects	134
2085		28258	Acer Inc	identified for his position as Dinesh on HBO collection Silicon Valley Kumail Nanjiani proved his immense  expertise  as a screenwriter as nicely  with this touching rom-com	Positive	New Projects	135
2086		28258	Acer Inc	However when Emily Zoe Kazan falls  unwell the whole lot is put into perspective	Negative	General	144
2087		28258	Acer Inc	Nominated for an Academy Award for Finest  Authentic Screenplay it was one of many highest-grossing impartial  movies that yr	Positive	Business Performance	144
2088		28258	Acer Inc	120 minutes Watch on Amazon Prime  Considered one of Amazon Studios first movie acquisitions for the Prime  Video streaming service this heartbreaking  story nonetheless stays among the many greatest  due to its poignant plot  and convincingly emotional performances	Positive	New Projects	136
2089		28258	Acer Inc	After returning to his hometown Manchester-by-the-Sea Massachusettes to see his sick brother Lee Casey Affleck finds himself revisiting outdated trauma  that led  to him leaving city within the first place and going through a tricky  resolution about his nephew and his brothers last needs	Negative	Business Risk	51
2090		28258	Acer Inc	Its a tearjerker however definitely worth  the watch to study why the movie acquired  quite a few nominations and wins together with one for Affleck	Positive	New Projects	137
2091		28258	Acer Inc	R Runtime: 137 minutes Watch on Amazon Prime 	Positive	New Projects	138
2092		28258	Acer Inc	This movie primarily based on James Baldwins unfinished  manuscript Bear in mind	Negative	New Projects	139
2093		28258	Acer Inc	Baldwin a novelist playwright essayist poet and activist was shut  associates with the three aforementioned leaders and wrote the manuscript all through the 70s as a group of notes and letters	Negative	General	145
2094		28258	Acer Inc	Nominated for Finest  Documentary Characteristic on the Academy Awards  it has an virtually excellent  score by critics  who check with it as an incendiary snapshot of James Baldwins essential  observations on American race relations and a sobering reminder of how far weve but to go Rotten Tomatoes:	Positive	Business Risk	52
2095		28258	Acer Inc	95 minutes Watch on Amazon Prime  Actor Shia LaBeouf has at all times been open about his unconventional childhood and this screenplay he wrote relies on his time rising up and most critically his turbulent  relationship together with his father	Negative	New Projects	140
2096		28258	Acer Inc	LaBeouf wrote the movie as a type of remedy  with a premise that begins when a younger man named Otis Lucas Hedges is pressured to revisit his troubled previous with the intention to uncover the basis of his extreme alcohol dependancy	Positive	Business Risk	53
2097		28258	Acer Inc	It takes you thru a troubling  eye-opening and emotional journey which The AV Club calls a fascinating glorified type of drama remedy Rotten Tomatoes:	Negative	Business Risk	54
2098		28258	Acer Inc	R Runtime: 94 minutes Watch on Amazon Prime 	Positive	New Projects	141
2099		28258	Acer Inc	After experiencing a gradual decline  in her rankings Katherine Newbury Emma Thompson a once-popular speak present host hires a brand  new author to shake  issues up	Negative	General	146
2100		28258	Acer Inc	Not solely does Molly assist Katherine enhance  her rankings however her gifted  work results in an expanded  viewers base	Positive	Business Performance	145
2101		28258	Acer Inc	Thompson was nominated for a Golden  Globe for her position	Positive	General	147
2102		28258	Acer Inc	R Runtime: 102 minutes Watch on Amazon Prime 	Positive	New Projects	142
2103		28258	Acer Inc	For those whore within the temper for comedy this hilarious  one marks the directorial debut for Paul Downs Colaizzo as he tells the story of an chubby lady dwelling in New York who events too laborious and abuses  Adderall till her physician warns her that she must drop extra pounds	Negative	Business Risk	55
2104		28258	Acer Inc	Colaizzo says the story was impressed  by his personal roommate whos featured in images at the start and finish credit of the movie	Positive	Business Risk	56
2105		28258	Acer Inc	Comedy Drama Stars: Jillian Bell Michael Watkins Utkarsh Ambudkar Lil Rel Howery Micah Inventory Director: Paul Downs Colaizzo Ranking: R Runtime: 103 minutes Watch on Amazon Prime  Based mostly partly on the Vainness Honest article	Positive	Business Performance	146
2106		28258	Acer Inc	written by Katherine Eban this movie delves deep into the investigation of torture  utilized by the CIA following the September 11 terrorist assaults	Negative	Business Risk	57
2107		28258	Acer Inc	The main target is the 6700-page report by Daniel Jones of the Senate Intelligence  Committee	Positive	Business Performance	147
2108		28258	Acer Inc	With a star-studded solid its no shock  the movie has been closely lauded for each its story and performances	Positive	Business Performance	148
2109		28258	Acer Inc	Biography Crime  Drama Historical past Thriller Stars: Adam Driver Annette Bening Jon Hamm Jennifer Morrison Director: Scott Z Burns  Ranking: R Runtime: 119 minutes Watch on Amazon Prime  Joaquin Phoenix	Negative	Business Risk	58
2110		28258	Acer Inc	is Joe a mercenary traumatized by his previous who has discovered rewarding work in rescuing kidnapped women together with the daughter of a politician who was taken by a community concerned  in human trafficking	Negative	General	148
2111		28258	Acer Inc	Utilizing any means essential  to get the job performed typically drawing from his personal troubled previous to do heinous issues to kidnappers within the title of rescuing the victims	Positive	Business Risk	59
2112		28258	Acer Inc	Phoenix deeply commits to the haunting  position as he does with each efficiency  maintaining you on the fringe of your seat your complete time	Negative	General	149
2113		28258	Acer Inc	R Runtime: 90 minutes Watch on Amazon Prime 	Positive	New Projects	143
2114		28258	Acer Inc	Within the second Adam Driver movie on this record he stars as a bus driver and poet who lives a sometimes boring  life contrasted by his spouses ever-changing ambition	Negative	General	150
2115		28258	Acer Inc	As he goes about his mundane  each day duties nevertheless like strolling the canine and grabbing a beer on the native bar he takes within the seemingly insignificant  moments round him and turns them into stunning poetry	Negative	Business Performance	149
2116		28258	Acer Inc	Its primarily based on the 2009 David Grann e book of the identical title and appears at Fawcetts exploration efforts by way of a few years as he grew  to become obsessive about discovering this misplaced metropolis	Positive	Business Risk	60
2117		28258	Acer Inc	Whereas the film really didnt carry out very nicely  on the field workplace critics  praised the story and Charlie Hunnams efficiency  so it is perhaps value testing when youve gotten the time to sit down by way of the two-plus-hour movie	Positive	General	151
2118		28258	Acer Inc	R Runtime: 141 minutes Watch on Amazon Prime  Often known as Ah-ga-ssi this erotic psychological thriller hails from South Korea and tells the story of a con man who units as much as seduce and marry a Japanese heiress	Positive	New Projects	144
2119		28258	Acer Inc	To have her dedicated  to an establishment so he can inherit her riches	Positive	Business Performance	150
2120		28258	Acer Inc	The movie is impressed  by Fingersmith a novel  by Sarah Waters which was set within the Victorian period versus the Japanese colonial rule depicted on this movie model of the menacing  story	Positive	Business Risk	61
2121		28258	Acer Inc	R Runtime: 145 minutes Watch on Amazon Prime  Viewers rated this movie a lot larger than critics 	Negative	Business Performance	151
2122		28258	Acer Inc	Based mostly on the memoirs Lovely  Boy:	Positive	Business Performance	152
2123		28258	Acer Inc	Felix van Groeningen Ranking: R Runtime: 120 minutes Watch on Amazon Prime 	Positive	Business Performance	153
2124		28258	Acer Inc	The tragic  but hopeful story behind this movie relies on the memoir of the identical title by John Callahan a quadriplegic and recovering alcoholic who after regaining some use of his higher physique discovered solace in creating ridiculous cartoons for newspapers by clutching his two arms collectively to carry the pen	Negative	Business Risk	62
2125		28258	Acer Inc	His off-color humor  often involving sometimes taboo  subjects like bodily disabilities and illnesses made him a preferred cartoonist and helped give the person paralyzed  at 21 in an car accident a brand  new lease on life	Negative	General	152
2126		28258	Acer Inc	R Runtime: 114 minutes Watch on Amazon Prime  Editors Suggestions	Positive	New Projects	145
2127	Positive	28260	Acer Inc	rugged  Enduro lineup are designed for field workers Share it	Positive	General	153
2128		28260	Acer Inc	Share Tweet Acer has launched Enduro its new line of rugged  notebooks and tablets specially designed to provide  the durability portability and performance needed by professionals working in the field	Positive	New Projects	146
2129		28260	Acer Inc	First responders and industrial manufacturing workers will find the Acer Enduro N7 to be a reliable  companion while event producers and outdoor hobbyists will appreciate  the thin-and-light yet durable  Enduro N3	Positive	New Projects	147
2130		28260	Acer Inc	With an increasingly modern  workforce more and more mobile devices are being deployed in the field where they are subject to harsher handling	Positive	General	154
2131		28260	Acer Inc	Enduro our new line of rugged  notebooks and tablets was created to provide  our customers with the durability and performance that gets the job done said Andrew Chuang General Manager Rugged  Computing Acer Inc Acer Enduro N7 Rugged  Notebook	Positive	New Projects	148
2132		28260	Acer Inc	The Acer Enduro N7 is a rugged  notebook constructed with shock-absorbent materials to offer the reliability needed by first responders field and industrial manufacturing workers while on the job	Positive	Business Risk	63
2133		28260	Acer Inc	MIL-810G and IP65 certified the device has been engineered to withstand drops onto the hardest flooring and to resist the ingress of dust  and water	Negative	New Projects	149
2134		28260	Acer Inc	This durability makes the device suitable  for work hot  or cold and its 700-nit 14-inch FHD screen offers excellent  visibility whether inside or outside	Positive	New Projects	150
2135		28260	Acer Inc	For those working long days the Enduro N7 comes with dual batteries: one hot-swappable battery with a long 10-hour life and another built-in bridge battery		New Projects	151
2136		28260	Acer Inc	In addition to being able  to physically survive chaotic  work environments the Enduro N7 is equipped  with the technology necessary to thrive  in a modern  work place	Positive	General	155
2137		28260	Acer Inc	A quad-core 8th Gen Intel Core i5 CPU offers enough  power to smoothly  navigate between several different applications and work on multiple tasks at the same time	Positive	General	156
2138		28260	Acer Inc	The Enduro N7 is also very secure: hardware-level Trusted  Platform Module TPM 20 checks for any signs of intrusion  during startup and the Acer Enduro Manageability Suite AEMS serves to help  protect  the device while also making it easy  to deploy services or system configurations across many devices	Positive	Business Performance	154
2139		28260	Acer Inc	Acer Enduro N3 Rugged  Notebook	Positive	Business Performance	155
2140		28260	Acer Inc	The Acer Enduro N3 is a powerful  notebook that strikes a balance between durability and portability making it ideal  for users who rotate between several worksites such as architects project inspectors event managers agricultural plant personnel or even lovers of the outdoors who want to record their adventures	Positive	New Projects	152
2141		28260	Acer Inc	810G and IP53 certifications while maintaining a thin-and-light frame of just 2485 mm 098 in at 1985 kg 437 lb		New Projects	153
2142		28260	Acer Inc	Some of these features include reinforced corners for drops Corning Gorilla Glass to protect  the display from water and the unique  water-resistant Aquafan	Positive	General	157
2143		28260	Acer Inc	This physical protection  comes on top  of premium  levels of protection  against cyber threats  thanks to technology like  Discrete Trusted  Platform Module AEMS and password-protected HDDs	Positive	Business Performance	156
2144		28260	Acer Inc	life2 is safe  and this safety does not come at the expense of performance	Positive	General	158
2145		28260	Acer Inc	The Enduro N3 boasts a 10th Gen Intel Core i7 processor and 32 GB of DDR4 RAM giving it reliable  performance with an optional NVIDIA GeForce MX230 discrete GPU and 512 GB PCle Gen3 NVMe SSD for those with exceptionally heavy workloads	Positive	New Projects	154
2146		28260	Acer Inc	The Acer Enduro Management Suite AEMS is a system designed to streamline the management of large  quantities of devices helping  to keep existing devices more secure  and speed up the process of rolling new ones out	Positive	Market Expansion	41
2147		28260	Acer Inc	I/O Control  :	Positive	Business Performance	157
2148		28260	Acer Inc	The ability to remotely enable/disable access to I/O ports 		General	159
2149		28260	Acer Inc	Cameras and barcode scanners may also be enabled or disabled 	Negative	General	160
2150		28260	Acer Inc	The Acer Enduro T5 ET510-51W is a durable  and rugged  10-inch Windows tablet designed for long periods of work in extreme environments	Positive	New Projects	155
2151		28260	Acer Inc	All on top  of MIL-STD 810G and IP65 certifications and AEMS	Positive	General	161
2152		28260	Acer Inc	The devices MIL-STD 810G4 and IP54 certifications combined with an Intel Celeron processor and 64 GB of eMMC storage space make it a reliable  and convenient  option for quick work on the go	Positive	New Projects	156
2153		28260	Acer Inc	Android tablet designed especially for smart  retail warehouse and factory workers	Positive	New Projects	157
2154		28260	Acer Inc	MIL-STD 810G and IP54 certified the device also features a range of optional accessories and programmable keys that enable  it to be adapted to a variety  of unique  environments	Positive	General	162
2155	Positive	28261	Acer Inc	The ConceptD Series includes a variety  of devices to suit the creative  needs of professionals across the board from design students and YouTube enthusiasts to CAD designers video editors illustrators and animators	Positive	Business Performance	158
2156		28261	Acer Inc	Powerful  enough  to handle medium-size to complex  CAD work with speed and accuracy the ConceptD 3 Ezel and ConceptD 3 notebook ranges make display and powerful  graphics specifications a priority	Positive	Business Performance	159
2157		28261	Acer Inc	They come with a thinner  and lighter  look with both the clamshell and convertible form factors having 14- and 156-inch screens so they can be used to edit and showcase work on the move	Positive	New Projects	158
2158		28261	Acer Inc	The innovative  ConceptD 3	Positive	New Projects	159
2159		28261	Acer Inc	Ezel is a convertible notebook designed to give creators the most intuitive  experience possible	Positive	General	163
2160		28261	Acer Inc	Its amber-backlit keys are set against a pristine white all-metal chassis and a luxuriously large  glass trackpad that supports multi-finger gestures	Positive	New Projects	160
2161		28261	Acer Inc	innovative  Ezel hinge makes the device as versatile  as it is elegant  empowering users with the ability to switch between six usage modes such as stand mode for drawing content or display mode for presenting it	Positive	Business Performance	160
2162		28261	Acer Inc	Other usage modes include an adjustable  float mode traditional laptop mode pad mode and share mode	Positive	Business Performance	161
2163		28261	Acer Inc	On top  of 18 hours of battery life1 the devices creative  toolbox includes programmable keys and a suite of connectivity options such as a SD card 70 reader and USB Type-C Thunderbolt 3 port while weighing just 168 kg 14 37 lbs or 195 kg 15 429 kg	Positive	New Projects	161
2164		28261	Acer Inc	This lifelike display is perfect  for drawing with Acers	Positive	Business Risk	64
2165		28261	Acer Inc	Active  Stylus featuring 4096 levels of pressure sensitivity and artists can make use of float mode to find their ideal  drawing angle	Positive	General	164
2166		28261	Acer Inc	This means that the notebook is powerful  enough  to handle not only drawing or sketching but also animation and 3D modelingall at 40 dBA or quieter	Positive	Business Performance	162
2167		28261	Acer Inc	Ideal  for those who prefer  traditional clamshell form factors 20 hours of battery life gives creators the flexibility  to edit and showcase their work wherever they happen to be	Positive	Business Performance	163
2168		28261	Acer Inc	Powered by NVIDIA Quadro T1000 ConceptD 3 Pro or GeForce GTX 1650Ti GPUs and the new 10th Gen Intel Core H-series processors it is specifically designed to handle all 2D or 3D color-critical design work on a 14- or 156-inch FHD PANTONE Validated display		New Projects	162
2169		28261	Acer Inc	The ConceptD 100 desktop is ideal  for graphics-intensive 2D design and entry-level 3D CAD modeling addressing the specific needs of professional creators and multimedia classrooms	Positive	Business Risk	65
2170		28261	Acer Inc	The ConceptD 100 desktop is equipped  with a powerful  9th Gen Intel Core processor and an NVIDIA GeForce or Quadro GPU allowing 2D and light-duty 3D creators to accelerate  quickly and reliably  through tasks and workflows	Positive	New Projects	163
2171		28261	Acer Inc	This small form factor PC comes with up to 256 GB of ultrafast SSD storage all-around connectivity and 32 GB of DDR4 RAM which allows creators to make simultaneous use of all essential  applications without delay 	Positive	New Projects	164
2172		28261	Acer Inc	Its front air intake and side-ventilation keep the mini workstation cool and ensure  that its noise  levels stay under 40 dBA the equivalent of a library room	Negative	Business Performance	164
2173		28261	Acer Inc	It blends features with style coming in an elegant  off-white curved design that fits perfectly  into any modern  office or workspace	Positive	Market Expansion	42
2174		28261	Acer Inc	The ConceptD CP5 and ConceptD CP3 series of monitors are aimed at professional computer graphics creators video editors and animators who require a high-performance monitor with outstanding  color accuracy and reliable  compatibility	Positive	Business Risk	66
2175		28261	Acer Inc	Both monitor lines are designed for those who seek resolution color accuracy and a wide color gamut the ability to work with HDR content high refresh  rates for blur-free images and a large  screen to facilitate  the design process and support collaboration	Positive	Business Risk	67
2176		28261	Acer Inc	For delicate  image quality it has a WQHD 2560 x 1440 resolution VESA DisplayHDR 600 is Adaptive-Sync compatible  and overclockable to a 170 Hz refresh  rate making it ideal  for professional video editing and CG work	Positive	New Projects	165
2177		28261	Acer Inc	Covering 99% of the Adobe RGB color space and leveraging a fast  1 ms GTG response time it produces rich  and lifelike images	Positive	Business Performance	165
2178		28261	Acer Inc	The ConceptD CP3 Monitor also aimed at professional creators video editors animators and graphic designers has similar specifications and supports 98% of the DCI-P3 wide color gamut WQHD 3840 x 2160 with a refresh  rate up to 165 Hz as well as	Positive	General	165
2179		28261	Acer Inc	The ConceptD CM3 series of monitors is aimed specifically at professional graphic designers and photo editors desiring  a monitor that can display finely detailed design concepts and 3D content	Positive	Market Expansion	43
2180		28261	Acer Inc	It is ideal  for professional designers that need to quickly and smoothly perform tasks requiring superb  color accuracy blur-free display and a wide color range as well as outstanding  HDR and reliable  compatibility	Positive	Business Risk	68
2181		28261	Acer Inc	The line is ideal  for creators performing 3D modeling editing static imagery and performing rendering tasks	Positive	General	166
2182		28261	Acer Inc	The large  screens support the design process and facilitate  collaboration	Positive	New Projects	166
2183		28261	Acer Inc	The CM3271K model offers a 4K UHD 3840 x 2160 screen with a 4 ms G to G response time 60 Hz refresh  rate and a wide color gamut supporting  99% of the Adobe RGB color space	Positive	Market Expansion	44
2184	Negative	28257	Acer Inc	ALBANY  A top  White House official fired back at Gov Andrew Cuomo on Tuesday tweeting that the Democrat alone is to blame for New Yorks slow  coronavirus shutdown  and the massive death  toll in nursing homes related to the virus	Negative	General	167
2185		28257	Acer Inc	My statement regarding Governor Cuomos ridiculous comments attempting to shift blame  and erase  his direct responsibility for so many precious  lives lost  in New York Hogan Gidley the deputy assistant and principal deputy press secretary to President Trump  quote-tweeted ahead of a screenshot of his actual statement Tuesday morning	Negative	Business Risk	69
2186		28257	Acer Inc	Cuomo alone is to Blame for refusing  to sit down New York and forcing seniors who tested positive  for Coronavirus back into his states nursing homes	Negative	General	168
2187		28257	Acer Inc	His reckless response did not follow CMS and CDC guidelines devastating  the senior population  and no amount of revisionist history can erase  Governor Cuomos grossly incompetent  decision or the fact that President Trumps bold aggressive  actions saved millions of lives he wrote	Negative	General	169
2188		28257	Acer Inc	Cuomo appeared in two television interviews ahead of the criticism where he defended his own controversial  order  and that of the New York state Health Department  issued on March 25 that barred nursing homes from denying  admittance to coronavirus-positive patients following their hospital discharge	Negative	General	170
2189		28257	Acer Inc	He also blamed the virus rapid  spread on facility staffers who tested positive  for the disease but were permitted to work under state guidance  because they were asymptomatic	Positive	General	171
2190		28257	Acer Inc	Cuomo continued to defend the order arguing the directive issued was aligned with federal guidance  from the Centers for Disease Control  and Prevention  from March 16 and that the federal government is instead blameworthy 	Positive	General	172
2191		28257	Acer Inc	That request came last week to Cuomo and four other Democratic governors whose nursing home policies have also fallen  under scrutiny by Rep Steve Scalise of Louisiana the ranking Republican on the House Select Subcommittee on the Coronavirus Crisis  along with the committees other GOP members	Negative	Business Risk	70
2192		28257	Acer Inc	know history shows that if you dont bend to the presidents will youll get fired but enough  with the lies Cuomo senior adviser Rich Azzopardi responded to Gidley in a statement citing a section of state law that says nursing homes should only accept residents if the homes can provide  adequate care  a section of law the governor has used in the past to defend his order	Positive	Business Risk	71
2193		28257	Acer Inc	Thats always been operative in NY and is consistent  with every federal guideline issued  all of which are still in effect  and the fact it took these toadies months to say anything shows how disingenuous	Positive	Business Risk	72
2194		28257	Acer Inc	More than a dozen other states adopted the same policies off the same federal guidelines  and yet the Washington Republicans are hell-bent on politically targeting five Democratic states in an election year for them		Business Risk	73
2195		28257	Acer Inc	The bottom line is that federal response to this pandemic has been a complete disaster  everyone knows it and no ones dumb enough  to fall for this diversion	Negative	Business Risk	74
2196	Positive	28259	Acer Inc	PC vendor Acer will start selling a new Google Chromebook model with an advanced  processor and hardware tough  enough  for military use its latest in a series of products that have historically been strong-sellers	Positive	Business Risk	75
2197		28259	Acer Inc	The thin  convertible laptop that runs on Chrome like  all PCs in its class will come with a 135-inch touch display and military-grade durability to resist shocks and dents Acer said in a statement	Negative	Business Performance	166
2198		28259	Acer Inc	These Chromebooks will appeal  to advanced students and entry-level office workers who want stronger  performance in a small light PC says Brady Wang associate director at Counterpoint Research in Taiwan	Positive	General	173
2199		28259	Acer Inc	dont think this one device will help  Acer that much	Positive	Business Risk	76
2200		28259	Acer Inc	The price is up in the normal range for PCs and costs are probably not low but sales wont be high though a lot comes down to branding Chromebooks have been a bright  spot for Acer over the past decade and helped it out of a troubled  time between 2011 and 2013	Negative	Business Performance	167
2201		28259	Acer Inc	In 2017 Acer had the worlds largest  market share for Chromebooks  topping Fujitsu and Lenovo	Positive	Business Performance	168
2202		28259	Acer Inc	Acer acknowledged in a statement double-digit growth  in revenue from Chromebooks in the second quarter of 2018	Positive	Business Performance	169
2203		28259	Acer Inc	The new Spin 713s processor comes from an Intel innovation program aimed at improving  laptops Acer said in the statement Tuesday	Positive	Business Risk	77
2204	Neutral	28262	Acer Inc	This is a premium  aluminum 2-in-1 that sports a 10th-gen Intel processor and starts at $62999	Positive	New Projects	167
2205		28262	Acer Inc	Acer promises  that the all-aluminum chassis is somewhat durable  saying the reinforced design and shock-absorbing bumper can survive drops from heights of up to 122 cm 48 inches and withstand up to 60 kg 132 pounds of downward force	Positive	New Projects	168
2206	Positive	28271	Acer Inc	On Tuesday Acer announced the companys refresh  to the Swift  5 a 14-inch notebook thats designed to be thin  and light	Positive	Business Performance	170
2207		28271	Acer Inc	Xe is designed to compete in coming integrated-graphics and dedicated-chip flavors with GPU solutions from Nvidia GeForce family and AMDs Radeon group		Market Expansion	45
2208		28271	Acer Inc	Instead the technology backs the graphics silicon that is integrated  into the next-generation processor according to Acer	Positive	Business Risk	78
2209		28271	Acer Inc	 Iris Plus and UHD Graphics solutions integrated  into Intels Ice Lake 10th Generation mobile processors	Positive	New Projects	169
2210		28271	Acer Inc	Last week Intel gave a taste of what we can expect from a Tiger Lake setup like  this one	Positive	General	174
2211		28271	Acer Inc	On Twitter the company demoed a prototype laptop with Tiger Lake and the integrated  Xe architecture running the game Battlefield V at 1080p on high graphics settings	Positive	New Projects	170
2212		28271	Acer Inc	The clip shows the game which was published in 2018 running fairly smoothly  at 30 frames per second despite the laptop having no dedicated  GPU	Positive	Business Performance	171
2213		28271	Acer Inc	Still consumers who want a bigger graphical boost will be able  to buy  the Swift  5 with an optional Nvidia GeForce MX350 dedicated  chip which will presumably be a step up from the Xe silicon on the Swift  5s processor	Positive	Market Expansion	46
2214		28271	Acer Inc	As for Tiger Lake Intel is promising  the chips will offer a double-digit performance gain  thanks to the companys 10-nanometer manufacturing technology	Positive	General	175
2215		28271	Acer Inc	The Tiger Lake processors and its motherboards have also been designed to be smaller enabling PC makers to create thinner  and lighter laptops	Positive	General	176
2216		28271	Acer Inc	The product now has a 90 percent screen-to-body ratio an increase  from the 864 percent ratio of last years	Positive	Business Performance	172
2217		28271	Acer Inc	Swift  5 model	Positive	General	177
2218		28271	Acer Inc	The laptop also comes with a touch display that features Cornings antimicrobial coating to help  keep germs at bay	Positive	General	178
2219		28271	Acer Inc	Another change is to the products hinge which will slightly elevate  the rear of the laptop when fully opened allowing for a more ergonomic typing experience and better  cooling according to the company	Positive	General	179
2220	Negative	28275	Ador Welding Ltd	Sales decline  687% to Rs 13990 croreNet profit of Ador Welding declined  875% to Rs 688 crore in the quarter ended March 2020 as against Rs 754 crore during the previous quarter ended March 2019	Negative	Business Performance	41
2221		28275	Ador Welding Ltd	Sales declined  687% to Rs 13990 crore in the quarter ended March 2020 as against Rs 15022 crore during the previous quarter ended March 2019	Negative	Business Performance	42
2222	Negative	28275	Ador Welding Ltd	Sales decline  687% to Rs 13990 croreNet profit of Ador Welding declined  875% to Rs 688 crore in the quarter ended March 2020 as against Rs 754 crore during the previous quarter ended March 2019	Negative	Business Performance	43
2223		28275	Ador Welding Ltd	Sales declined  687% to Rs 13990 crore in the quarter ended March 2020 as against Rs 15022 crore during the previous quarter ended March 2019	Negative	Business Performance	44
2224	Positive	28232	Acer Inc	While the ConceptD 7 Ezel was too expensive  for more people the new ConceptD 3 Ezel starts at a more modest $1500 and comes in two sizes	Negative	New Projects	171
2225		28232	Acer Inc	Two versions of the ConceptD 3 Ezel are available including the 156-inch version but the 14-inch may be the sweet  spot especially since it only weighs 174 kg 383lbs	Positive	New Projects	172
2226		28232	Acer Inc	That savings  in weight is due to the polycarbonate used on the chassis instead of metal	Positive	Business Performance	173
2227		28232	Acer Inc	Best  online learning tools for kids: ABCmouse Reading IQ & more Category Spec OS Windows 10 Home Windows 10	Positive	Business Performance	174
2228		28232	Acer Inc	Acer Active  Stylus 4096 levels sensitivity	Positive	Business Performance	175
2229		28232	Acer Inc	Audio Top-firing DTS:		General	180
2230		28232	Acer Inc	 Acer here is aiming for a more affordable  market hence the limit of 16GB of RAM	Positive	Business Risk	79
2231		28232	Acer Inc	But the display continues to be amazing  with Pantone Validation for color accuracy and 4096 levels of sensitivity for the Acer Active  Styles	Positive	Business Performance	176
2232		28232	Acer Inc	Acer notes that the ConceptD 3 Ezel which borrows a lot from HPs Spectre Folio design minus the leather gives this laptop durability and stability  for whatever positions you choose to use it in:	Positive	Business Risk	80
2233		28232	Acer Inc	The innovative  ConceptD 3	Positive	New Projects	173
2234		28232	Acer Inc	Ezel is a convertible notebook designed to give creators the most intuitive  experience possible	Positive	General	181
2235		28232	Acer Inc	Its amber-backlit keys are set against a pristine white all-metal chassis and a luxuriously large  glass trackpad that supports multi-finger gestures	Positive	New Projects	174
2236		28232	Acer Inc	Acers innovative  Ezel hinge makes the device as versatile  as it is elegant empowering users with the ability to switch between six usage modes such as stand mode for drawing content or display mode for presenting it	Positive	Business Performance	177
2237		28232	Acer Inc	Other usage modes include an adjustable  float mode traditional laptop mode pad mode and share mode	Positive	Business Performance	178
2238	Positive	28233	ABB Ltd	Linxon is supporting  Petrofac to deliver the turnkey onshore substation for the 1075MW Seagreen offshore wind project off Scotland	Positive	New Projects	252
2239		28233	ABB Ltd	Linxon has already commenced  early project works working closely with Petrofac and its supply chain partners	Positive	New Projects	253
2240		28233	ABB Ltd	It is due to commence  site and construction works in the coming weeks	Positive	Business Performance	109
2241		28233	ABB Ltd	Linxon chief executive Frederic Trefois said: We are honoured to be collaborating with Petrofac for this large-scale renewable energy project		General	215
2242		28233	ABB Ltd	Our collaboration bringing together collective expertise  and experience from similar onshore and offshore renewables projects is impressive  and creates value for our customers from the early stage of the project development until the end of the commissioning of the project	Positive	New Projects	254
2243		28233	ABB Ltd	Linxon is fully committed to contribute  with its world class execution skills to deliver a safe  quality focused and on-time project	Positive	General	216
2244		28233	ABB Ltd	When complete it will be Scotlands largest  offshore wind farm	Positive	Market Expansion	131
2245	Positive	28236	ABB Ltd	NewswireToday - /newswire/ - Zurich Switzerland 2020/06/23 - Milestone win  secured following acquisition of majority stake in leading Chinese electric vehicle charging solution provider Shanghai Chargedot New Energy Technology Co Ltd - ABBcom 	Positive	New Projects	255
2246		28236	ABB Ltd	ABB through Chargedot has just won  a major order from GAC Toyota Motor in China worth  approx	Positive	New Projects	256
2247		28236	ABB Ltd	Frank Muehlon Head of ABBs global business for E-mobility Infrastructure Solutions comments: With their highly advanced  domestic EV charging sector China represents a key e-mobility market for ABB and we are delighted  to be supporting  GAC Toyota in achieving their e-mobility strategy Andy Cao General Manager of Chargedot Shanghai New Energy Technology Co Ltd adds: The combination of Chargedots local knowledge and expertise  combined with ABBs advanced  management experience leading product technology and strong  market influence meant that we were able  to meet all of GAC Toyotas needs and we look forward  to working closely with them over the course of the next	Positive	General	217
2248		28236	ABB Ltd	year China already boasts the largest  fleet of electric vehicles worldwide at more than 2 million with predictions that EVs will account for 70% of all vehicle sales in China by 20301	Positive	Business Performance	110
2249		28236	ABB Ltd	ABB is well  placed to support this ongoing e-mobility transition with unrivalled expertise  in developing sustainable  transport solutions	Positive	Market Expansion	132
2250		28236	ABB Ltd	Since entering the EV-charging market a decade ago ABB has sold more than 14000 ABB DC fast  chargers across more than 80 countries	Positive	Business Performance	111
2251		28236	ABB Ltd	ABB recently received the Global E-mobility Leader 2019 award  for its role in supporting  the international adoption of sustainable  transport solutions	Positive	New Projects	257
2252		28236	ABB Ltd	With a history of innovation  spanning more than 130 years ABB has four customer-focused globally leading businesses: Electrification Industrial Automation Motion and Robotics & Discrete Automation supported  by the ABB Ability digital platform	Positive	Market Expansion	133
2253		28236	ABB Ltd	Activate ALL web links and social stream by Upgrading to Press Release PREMIUM  Plan Now	Positive	Business Performance	112
